ARM GAS  C:\Users\micha\AppData\Local\Temp\ccDWiYcc.s 			page 1


   1              		.cpu cortex-m7
   2              		.eabi_attribute 27, 1
   3              		.eabi_attribute 28, 1
   4              		.eabi_attribute 20, 1
   5              		.eabi_attribute 21, 1
   6              		.eabi_attribute 23, 3
   7              		.eabi_attribute 24, 1
   8              		.eabi_attribute 25, 1
   9              		.eabi_attribute 26, 1
  10              		.eabi_attribute 30, 1
  11              		.eabi_attribute 34, 1
  12              		.eabi_attribute 18, 4
  13              		.file	"i2c.c"
  14              		.text
  15              	.Ltext0:
  16              		.cfi_sections	.debug_frame
  17              		.section	.text.MX_I2C2_Init,"ax",%progbits
  18              		.align	1
  19              		.global	MX_I2C2_Init
  20              		.syntax unified
  21              		.thumb
  22              		.thumb_func
  23              		.fpu fpv5-sp-d16
  25              	MX_I2C2_Init:
  26              	.LFB138:
  27              		.file 1 "Src/i2c.c"
   1:Src/i2c.c     **** /**
   2:Src/i2c.c     ****   ******************************************************************************
   3:Src/i2c.c     ****   * File Name          : I2C.c
   4:Src/i2c.c     ****   * Description        : This file provides code for the configuration
   5:Src/i2c.c     ****   *                      of the I2C instances.
   6:Src/i2c.c     ****   ******************************************************************************
   7:Src/i2c.c     ****   * This notice applies to any and all portions of this file
   8:Src/i2c.c     ****   * that are not between comment pairs USER CODE BEGIN and
   9:Src/i2c.c     ****   * USER CODE END. Other portions of this file, whether 
  10:Src/i2c.c     ****   * inserted by the user or by software development tools
  11:Src/i2c.c     ****   * are owned by their respective copyright owners.
  12:Src/i2c.c     ****   *
  13:Src/i2c.c     ****   * Copyright (c) 2018 STMicroelectronics International N.V. 
  14:Src/i2c.c     ****   * All rights reserved.
  15:Src/i2c.c     ****   *
  16:Src/i2c.c     ****   * Redistribution and use in source and binary forms, with or without 
  17:Src/i2c.c     ****   * modification, are permitted, provided that the following conditions are met:
  18:Src/i2c.c     ****   *
  19:Src/i2c.c     ****   * 1. Redistribution of source code must retain the above copyright notice, 
  20:Src/i2c.c     ****   *    this list of conditions and the following disclaimer.
  21:Src/i2c.c     ****   * 2. Redistributions in binary form must reproduce the above copyright notice,
  22:Src/i2c.c     ****   *    this list of conditions and the following disclaimer in the documentation
  23:Src/i2c.c     ****   *    and/or other materials provided with the distribution.
  24:Src/i2c.c     ****   * 3. Neither the name of STMicroelectronics nor the names of other 
  25:Src/i2c.c     ****   *    contributors to this software may be used to endorse or promote products 
  26:Src/i2c.c     ****   *    derived from this software without specific written permission.
  27:Src/i2c.c     ****   * 4. This software, including modifications and/or derivative works of this 
  28:Src/i2c.c     ****   *    software, must execute solely and exclusively on microcontroller or
  29:Src/i2c.c     ****   *    microprocessor devices manufactured by or for STMicroelectronics.
  30:Src/i2c.c     ****   * 5. Redistribution and use of this software other than as permitted under 
  31:Src/i2c.c     ****   *    this license is void and will automatically terminate your rights under 
ARM GAS  C:\Users\micha\AppData\Local\Temp\ccDWiYcc.s 			page 2


  32:Src/i2c.c     ****   *    this license. 
  33:Src/i2c.c     ****   *
  34:Src/i2c.c     ****   * THIS SOFTWARE IS PROVIDED BY STMICROELECTRONICS AND CONTRIBUTORS "AS IS" 
  35:Src/i2c.c     ****   * AND ANY EXPRESS, IMPLIED OR STATUTORY WARRANTIES, INCLUDING, BUT NOT 
  36:Src/i2c.c     ****   * LIMITED TO, THE IMPLIED WARRANTIES OF MERCHANTABILITY, FITNESS FOR A 
  37:Src/i2c.c     ****   * PARTICULAR PURPOSE AND NON-INFRINGEMENT OF THIRD PARTY INTELLECTUAL PROPERTY
  38:Src/i2c.c     ****   * RIGHTS ARE DISCLAIMED TO THE FULLEST EXTENT PERMITTED BY LAW. IN NO EVENT 
  39:Src/i2c.c     ****   * SHALL STMICROELECTRONICS OR CONTRIBUTORS BE LIABLE FOR ANY DIRECT, INDIRECT,
  40:Src/i2c.c     ****   * INCIDENTAL, SPECIAL, EXEMPLARY, OR CONSEQUENTIAL DAMAGES (INCLUDING, BUT NOT
  41:Src/i2c.c     ****   * LIMITED TO, PROCUREMENT OF SUBSTITUTE GOODS OR SERVICES; LOSS OF USE, DATA, 
  42:Src/i2c.c     ****   * OR PROFITS; OR BUSINESS INTERRUPTION) HOWEVER CAUSED AND ON ANY THEORY OF 
  43:Src/i2c.c     ****   * LIABILITY, WHETHER IN CONTRACT, STRICT LIABILITY, OR TORT (INCLUDING 
  44:Src/i2c.c     ****   * NEGLIGENCE OR OTHERWISE) ARISING IN ANY WAY OUT OF THE USE OF THIS SOFTWARE,
  45:Src/i2c.c     ****   * EVEN IF ADVISED OF THE POSSIBILITY OF SUCH DAMAGE.
  46:Src/i2c.c     ****   *
  47:Src/i2c.c     ****   ******************************************************************************
  48:Src/i2c.c     ****   */
  49:Src/i2c.c     **** 
  50:Src/i2c.c     **** /* Includes ------------------------------------------------------------------*/
  51:Src/i2c.c     **** #include "i2c.h"
  52:Src/i2c.c     **** 
  53:Src/i2c.c     **** #include "gpio.h"
  54:Src/i2c.c     **** 
  55:Src/i2c.c     **** /* USER CODE BEGIN 0 */
  56:Src/i2c.c     **** 
  57:Src/i2c.c     **** /* USER CODE END 0 */
  58:Src/i2c.c     **** 
  59:Src/i2c.c     **** I2C_HandleTypeDef hi2c2;
  60:Src/i2c.c     **** 
  61:Src/i2c.c     **** /* I2C2 init function */
  62:Src/i2c.c     **** void MX_I2C2_Init(void)
  63:Src/i2c.c     **** {
  28              		.loc 1 63 0
  29              		.cfi_startproc
  30              		@ args = 0, pretend = 0, frame = 0
  31              		@ frame_needed = 0, uses_anonymous_args = 0
  32 0000 08B5     		push	{r3, lr}
  33              	.LCFI0:
  34              		.cfi_def_cfa_offset 8
  35              		.cfi_offset 3, -8
  36              		.cfi_offset 14, -4
  64:Src/i2c.c     **** 
  65:Src/i2c.c     ****   hi2c2.Instance = I2C2;
  37              		.loc 1 65 0
  38 0002 1648     		ldr	r0, .L9
  39 0004 164B     		ldr	r3, .L9+4
  40 0006 0360     		str	r3, [r0]
  66:Src/i2c.c     ****   hi2c2.Init.Timing = 0x00000E14;
  41              		.loc 1 66 0
  42 0008 40F61463 		movw	r3, #3604
  43 000c 4360     		str	r3, [r0, #4]
  67:Src/i2c.c     ****   hi2c2.Init.OwnAddress1 = 0;
  44              		.loc 1 67 0
  45 000e 0023     		movs	r3, #0
  46 0010 8360     		str	r3, [r0, #8]
  68:Src/i2c.c     ****   hi2c2.Init.AddressingMode = I2C_ADDRESSINGMODE_7BIT;
  47              		.loc 1 68 0
ARM GAS  C:\Users\micha\AppData\Local\Temp\ccDWiYcc.s 			page 3


  48 0012 0122     		movs	r2, #1
  49 0014 C260     		str	r2, [r0, #12]
  69:Src/i2c.c     ****   hi2c2.Init.DualAddressMode = I2C_DUALADDRESS_DISABLE;
  50              		.loc 1 69 0
  51 0016 0361     		str	r3, [r0, #16]
  70:Src/i2c.c     ****   hi2c2.Init.OwnAddress2 = 0;
  52              		.loc 1 70 0
  53 0018 4361     		str	r3, [r0, #20]
  71:Src/i2c.c     ****   hi2c2.Init.OwnAddress2Masks = I2C_OA2_NOMASK;
  54              		.loc 1 71 0
  55 001a 8361     		str	r3, [r0, #24]
  72:Src/i2c.c     ****   hi2c2.Init.GeneralCallMode = I2C_GENERALCALL_DISABLE;
  56              		.loc 1 72 0
  57 001c C361     		str	r3, [r0, #28]
  73:Src/i2c.c     ****   hi2c2.Init.NoStretchMode = I2C_NOSTRETCH_DISABLE;
  58              		.loc 1 73 0
  59 001e 0362     		str	r3, [r0, #32]
  74:Src/i2c.c     ****   if (HAL_I2C_Init(&hi2c2) != HAL_OK)
  60              		.loc 1 74 0
  61 0020 FFF7FEFF 		bl	HAL_I2C_Init
  62              	.LVL0:
  63 0024 50B9     		cbnz	r0, .L6
  64              	.L2:
  75:Src/i2c.c     ****   {
  76:Src/i2c.c     ****     _Error_Handler(__FILE__, __LINE__);
  77:Src/i2c.c     ****   }
  78:Src/i2c.c     **** 
  79:Src/i2c.c     ****     /**Configure Analogue filter 
  80:Src/i2c.c     ****     */
  81:Src/i2c.c     ****   if (HAL_I2CEx_ConfigAnalogFilter(&hi2c2, I2C_ANALOGFILTER_ENABLE) != HAL_OK)
  65              		.loc 1 81 0
  66 0026 0021     		movs	r1, #0
  67 0028 0C48     		ldr	r0, .L9
  68 002a FFF7FEFF 		bl	HAL_I2CEx_ConfigAnalogFilter
  69              	.LVL1:
  70 002e 50B9     		cbnz	r0, .L7
  71              	.L3:
  82:Src/i2c.c     ****   {
  83:Src/i2c.c     ****     _Error_Handler(__FILE__, __LINE__);
  84:Src/i2c.c     ****   }
  85:Src/i2c.c     **** 
  86:Src/i2c.c     ****     /**Configure Digital filter 
  87:Src/i2c.c     ****     */
  88:Src/i2c.c     ****   if (HAL_I2CEx_ConfigDigitalFilter(&hi2c2, 0) != HAL_OK)
  72              		.loc 1 88 0
  73 0030 0021     		movs	r1, #0
  74 0032 0A48     		ldr	r0, .L9
  75 0034 FFF7FEFF 		bl	HAL_I2CEx_ConfigDigitalFilter
  76              	.LVL2:
  77 0038 50B9     		cbnz	r0, .L8
  78              	.L1:
  89:Src/i2c.c     ****   {
  90:Src/i2c.c     ****     _Error_Handler(__FILE__, __LINE__);
  91:Src/i2c.c     ****   }
  92:Src/i2c.c     **** 
  93:Src/i2c.c     **** }
  79              		.loc 1 93 0
ARM GAS  C:\Users\micha\AppData\Local\Temp\ccDWiYcc.s 			page 4


  80 003a 08BD     		pop	{r3, pc}
  81              	.L6:
  76:Src/i2c.c     ****   }
  82              		.loc 1 76 0
  83 003c 4C21     		movs	r1, #76
  84 003e 0948     		ldr	r0, .L9+8
  85 0040 FFF7FEFF 		bl	_Error_Handler
  86              	.LVL3:
  87 0044 EFE7     		b	.L2
  88              	.L7:
  83:Src/i2c.c     ****   }
  89              		.loc 1 83 0
  90 0046 5321     		movs	r1, #83
  91 0048 0648     		ldr	r0, .L9+8
  92 004a FFF7FEFF 		bl	_Error_Handler
  93              	.LVL4:
  94 004e EFE7     		b	.L3
  95              	.L8:
  90:Src/i2c.c     ****   }
  96              		.loc 1 90 0
  97 0050 5A21     		movs	r1, #90
  98 0052 0448     		ldr	r0, .L9+8
  99 0054 FFF7FEFF 		bl	_Error_Handler
 100              	.LVL5:
 101              		.loc 1 93 0
 102 0058 EFE7     		b	.L1
 103              	.L10:
 104 005a 00BF     		.align	2
 105              	.L9:
 106 005c 00000000 		.word	hi2c2
 107 0060 00580040 		.word	1073764352
 108 0064 00000000 		.word	.LC0
 109              		.cfi_endproc
 110              	.LFE138:
 112              		.section	.text.HAL_I2C_MspInit,"ax",%progbits
 113              		.align	1
 114              		.global	HAL_I2C_MspInit
 115              		.syntax unified
 116              		.thumb
 117              		.thumb_func
 118              		.fpu fpv5-sp-d16
 120              	HAL_I2C_MspInit:
 121              	.LFB139:
  94:Src/i2c.c     **** 
  95:Src/i2c.c     **** void HAL_I2C_MspInit(I2C_HandleTypeDef* i2cHandle)
  96:Src/i2c.c     **** {
 122              		.loc 1 96 0
 123              		.cfi_startproc
 124              		@ args = 0, pretend = 0, frame = 24
 125              		@ frame_needed = 0, uses_anonymous_args = 0
 126              	.LVL6:
  97:Src/i2c.c     **** 
  98:Src/i2c.c     ****   GPIO_InitTypeDef GPIO_InitStruct;
  99:Src/i2c.c     ****   if(i2cHandle->Instance==I2C2)
 127              		.loc 1 99 0
 128 0000 0268     		ldr	r2, [r0]
 129 0002 114B     		ldr	r3, .L18
ARM GAS  C:\Users\micha\AppData\Local\Temp\ccDWiYcc.s 			page 5


 130 0004 9A42     		cmp	r2, r3
 131 0006 00D0     		beq	.L17
 132 0008 7047     		bx	lr
 133              	.L17:
  96:Src/i2c.c     **** 
 134              		.loc 1 96 0
 135 000a 00B5     		push	{lr}
 136              	.LCFI1:
 137              		.cfi_def_cfa_offset 4
 138              		.cfi_offset 14, -4
 139 000c 87B0     		sub	sp, sp, #28
 140              	.LCFI2:
 141              		.cfi_def_cfa_offset 32
 100:Src/i2c.c     ****   {
 101:Src/i2c.c     ****   /* USER CODE BEGIN I2C2_MspInit 0 */
 102:Src/i2c.c     **** 
 103:Src/i2c.c     ****   /* USER CODE END I2C2_MspInit 0 */
 104:Src/i2c.c     ****   
 105:Src/i2c.c     ****     /**I2C2 GPIO Configuration    
 106:Src/i2c.c     ****     PB10     ------> I2C2_SCL
 107:Src/i2c.c     ****     PB11     ------> I2C2_SDA 
 108:Src/i2c.c     ****     */
 109:Src/i2c.c     ****     GPIO_InitStruct.Pin = GPIO_PIN_10|GPIO_PIN_11;
 142              		.loc 1 109 0
 143 000e 4FF44063 		mov	r3, #3072
 144 0012 0193     		str	r3, [sp, #4]
 110:Src/i2c.c     ****     GPIO_InitStruct.Mode = GPIO_MODE_AF_OD;
 145              		.loc 1 110 0
 146 0014 1223     		movs	r3, #18
 147 0016 0293     		str	r3, [sp, #8]
 111:Src/i2c.c     ****     GPIO_InitStruct.Pull = GPIO_PULLUP;
 148              		.loc 1 111 0
 149 0018 0123     		movs	r3, #1
 150 001a 0393     		str	r3, [sp, #12]
 112:Src/i2c.c     ****     GPIO_InitStruct.Speed = GPIO_SPEED_FREQ_VERY_HIGH;
 151              		.loc 1 112 0
 152 001c 0323     		movs	r3, #3
 153 001e 0493     		str	r3, [sp, #16]
 113:Src/i2c.c     ****     GPIO_InitStruct.Alternate = GPIO_AF4_I2C2;
 154              		.loc 1 113 0
 155 0020 0423     		movs	r3, #4
 156 0022 0593     		str	r3, [sp, #20]
 114:Src/i2c.c     ****     HAL_GPIO_Init(GPIOB, &GPIO_InitStruct);
 157              		.loc 1 114 0
 158 0024 0DEB0301 		add	r1, sp, r3
 159 0028 0848     		ldr	r0, .L18+4
 160              	.LVL7:
 161 002a FFF7FEFF 		bl	HAL_GPIO_Init
 162              	.LVL8:
 163              	.LBB2:
 115:Src/i2c.c     **** 
 116:Src/i2c.c     ****     /* I2C2 clock enable */
 117:Src/i2c.c     ****     __HAL_RCC_I2C2_CLK_ENABLE();
 164              		.loc 1 117 0
 165 002e 084B     		ldr	r3, .L18+8
 166 0030 1A6C     		ldr	r2, [r3, #64]
 167 0032 42F48002 		orr	r2, r2, #4194304
ARM GAS  C:\Users\micha\AppData\Local\Temp\ccDWiYcc.s 			page 6


 168 0036 1A64     		str	r2, [r3, #64]
 169 0038 1B6C     		ldr	r3, [r3, #64]
 170 003a 03F48003 		and	r3, r3, #4194304
 171 003e 0093     		str	r3, [sp]
 172 0040 009B     		ldr	r3, [sp]
 173              	.LBE2:
 118:Src/i2c.c     ****   /* USER CODE BEGIN I2C2_MspInit 1 */
 119:Src/i2c.c     **** 
 120:Src/i2c.c     ****   /* USER CODE END I2C2_MspInit 1 */
 121:Src/i2c.c     ****   }
 122:Src/i2c.c     **** }
 174              		.loc 1 122 0
 175 0042 07B0     		add	sp, sp, #28
 176              	.LCFI3:
 177              		.cfi_def_cfa_offset 4
 178              		@ sp needed
 179 0044 5DF804FB 		ldr	pc, [sp], #4
 180              	.L19:
 181              		.align	2
 182              	.L18:
 183 0048 00580040 		.word	1073764352
 184 004c 00040240 		.word	1073873920
 185 0050 00380240 		.word	1073887232
 186              		.cfi_endproc
 187              	.LFE139:
 189              		.section	.text.HAL_I2C_MspDeInit,"ax",%progbits
 190              		.align	1
 191              		.global	HAL_I2C_MspDeInit
 192              		.syntax unified
 193              		.thumb
 194              		.thumb_func
 195              		.fpu fpv5-sp-d16
 197              	HAL_I2C_MspDeInit:
 198              	.LFB140:
 123:Src/i2c.c     **** 
 124:Src/i2c.c     **** void HAL_I2C_MspDeInit(I2C_HandleTypeDef* i2cHandle)
 125:Src/i2c.c     **** {
 199              		.loc 1 125 0
 200              		.cfi_startproc
 201              		@ args = 0, pretend = 0, frame = 0
 202              		@ frame_needed = 0, uses_anonymous_args = 0
 203              	.LVL9:
 204 0000 08B5     		push	{r3, lr}
 205              	.LCFI4:
 206              		.cfi_def_cfa_offset 8
 207              		.cfi_offset 3, -8
 208              		.cfi_offset 14, -4
 126:Src/i2c.c     **** 
 127:Src/i2c.c     ****   if(i2cHandle->Instance==I2C2)
 209              		.loc 1 127 0
 210 0002 0268     		ldr	r2, [r0]
 211 0004 074B     		ldr	r3, .L24
 212 0006 9A42     		cmp	r2, r3
 213 0008 00D0     		beq	.L23
 214              	.LVL10:
 215              	.L20:
 128:Src/i2c.c     ****   {
ARM GAS  C:\Users\micha\AppData\Local\Temp\ccDWiYcc.s 			page 7


 129:Src/i2c.c     ****   /* USER CODE BEGIN I2C2_MspDeInit 0 */
 130:Src/i2c.c     **** 
 131:Src/i2c.c     ****   /* USER CODE END I2C2_MspDeInit 0 */
 132:Src/i2c.c     ****     /* Peripheral clock disable */
 133:Src/i2c.c     ****     __HAL_RCC_I2C2_CLK_DISABLE();
 134:Src/i2c.c     ****   
 135:Src/i2c.c     ****     /**I2C2 GPIO Configuration    
 136:Src/i2c.c     ****     PB10     ------> I2C2_SCL
 137:Src/i2c.c     ****     PB11     ------> I2C2_SDA 
 138:Src/i2c.c     ****     */
 139:Src/i2c.c     ****     HAL_GPIO_DeInit(GPIOB, GPIO_PIN_10|GPIO_PIN_11);
 140:Src/i2c.c     **** 
 141:Src/i2c.c     ****   /* USER CODE BEGIN I2C2_MspDeInit 1 */
 142:Src/i2c.c     **** 
 143:Src/i2c.c     ****   /* USER CODE END I2C2_MspDeInit 1 */
 144:Src/i2c.c     ****   }
 145:Src/i2c.c     **** } 
 216              		.loc 1 145 0
 217 000a 08BD     		pop	{r3, pc}
 218              	.LVL11:
 219              	.L23:
 133:Src/i2c.c     ****   
 220              		.loc 1 133 0
 221 000c 064A     		ldr	r2, .L24+4
 222 000e 136C     		ldr	r3, [r2, #64]
 223 0010 23F48003 		bic	r3, r3, #4194304
 224 0014 1364     		str	r3, [r2, #64]
 139:Src/i2c.c     **** 
 225              		.loc 1 139 0
 226 0016 4FF44061 		mov	r1, #3072
 227 001a 0448     		ldr	r0, .L24+8
 228              	.LVL12:
 229 001c FFF7FEFF 		bl	HAL_GPIO_DeInit
 230              	.LVL13:
 231              		.loc 1 145 0
 232 0020 F3E7     		b	.L20
 233              	.L25:
 234 0022 00BF     		.align	2
 235              	.L24:
 236 0024 00580040 		.word	1073764352
 237 0028 00380240 		.word	1073887232
 238 002c 00040240 		.word	1073873920
 239              		.cfi_endproc
 240              	.LFE140:
 242              		.comm	hi2c2,76,4
 243              		.section	.rodata.MX_I2C2_Init.str1.4,"aMS",%progbits,1
 244              		.align	2
 245              	.LC0:
 246 0000 5372632F 		.ascii	"Src/i2c.c\000"
 246      6932632E 
 246      6300
 247              		.text
 248              	.Letext0:
 249              		.file 2 "c:\\program files (x86)\\gnu tools arm embedded\\7 2018-q2-update\\arm-none-eabi\\include
 250              		.file 3 "c:\\program files (x86)\\gnu tools arm embedded\\7 2018-q2-update\\arm-none-eabi\\include
 251              		.file 4 "Drivers/CMSIS/Include/core_cm7.h"
 252              		.file 5 "Drivers/CMSIS/Device/ST/STM32F7xx/Include/system_stm32f7xx.h"
ARM GAS  C:\Users\micha\AppData\Local\Temp\ccDWiYcc.s 			page 8


 253              		.file 6 "Drivers/CMSIS/Device/ST/STM32F7xx/Include/stm32f746xx.h"
 254              		.file 7 "c:\\program files (x86)\\gnu tools arm embedded\\7 2018-q2-update\\arm-none-eabi\\include
 255              		.file 8 "c:\\program files (x86)\\gnu tools arm embedded\\7 2018-q2-update\\arm-none-eabi\\include
 256              		.file 9 "c:\\program files (x86)\\gnu tools arm embedded\\7 2018-q2-update\\lib\\gcc\\arm-none-eab
 257              		.file 10 "c:\\program files (x86)\\gnu tools arm embedded\\7 2018-q2-update\\arm-none-eabi\\includ
 258              		.file 11 "Drivers/STM32F7xx_HAL_Driver/Inc/stm32f7xx_hal_def.h"
 259              		.file 12 "Drivers/STM32F7xx_HAL_Driver/Inc/stm32f7xx_hal_gpio.h"
 260              		.file 13 "Drivers/STM32F7xx_HAL_Driver/Inc/stm32f7xx_hal_dma.h"
 261              		.file 14 "Drivers/STM32F7xx_HAL_Driver/Inc/stm32f7xx_hal_i2c.h"
 262              		.file 15 "Inc/i2c.h"
 263              		.file 16 "Drivers/STM32F7xx_HAL_Driver/Inc/stm32f7xx_hal_i2c_ex.h"
ARM GAS  C:\Users\micha\AppData\Local\Temp\ccDWiYcc.s 			page 9

