ARM GAS  C:\Users\micha\AppData\Local\Temp\ccafMmKQ.s 			page 1


   1              		.cpu cortex-m7
   2              		.eabi_attribute 27, 1
   3              		.eabi_attribute 28, 1
   4              		.eabi_attribute 20, 1
   5              		.eabi_attribute 21, 1
   6              		.eabi_attribute 23, 3
   7              		.eabi_attribute 24, 1
   8              		.eabi_attribute 25, 1
   9              		.eabi_attribute 26, 1
  10              		.eabi_attribute 30, 1
  11              		.eabi_attribute 34, 1
  12              		.eabi_attribute 18, 4
  13              		.file	"stm32f7xx_hal_rtc_ex.c"
  14              		.text
  15              	.Ltext0:
  16              		.cfi_sections	.debug_frame
  17              		.section	.text.HAL_RTCEx_SetTimeStamp,"ax",%progbits
  18              		.align	1
  19              		.global	HAL_RTCEx_SetTimeStamp
  20              		.syntax unified
  21              		.thumb
  22              		.thumb_func
  23              		.fpu fpv5-sp-d16
  25              	HAL_RTCEx_SetTimeStamp:
  26              	.LFB138:
  27              		.file 1 "Drivers/STM32F7xx_HAL_Driver/Src/stm32f7xx_hal_rtc_ex.c"
   1:Drivers/STM32F7xx_HAL_Driver/Src/stm32f7xx_hal_rtc_ex.c **** /**
   2:Drivers/STM32F7xx_HAL_Driver/Src/stm32f7xx_hal_rtc_ex.c ****   ******************************************************************************
   3:Drivers/STM32F7xx_HAL_Driver/Src/stm32f7xx_hal_rtc_ex.c ****   * @file    stm32f7xx_hal_rtc_ex.c
   4:Drivers/STM32F7xx_HAL_Driver/Src/stm32f7xx_hal_rtc_ex.c ****   * @author  MCD Application Team
   5:Drivers/STM32F7xx_HAL_Driver/Src/stm32f7xx_hal_rtc_ex.c ****   * @brief   RTC HAL module driver.
   6:Drivers/STM32F7xx_HAL_Driver/Src/stm32f7xx_hal_rtc_ex.c ****   *          This file provides firmware functions to manage the following 
   7:Drivers/STM32F7xx_HAL_Driver/Src/stm32f7xx_hal_rtc_ex.c ****   *          functionalities of the Real Time Clock (RTC) Extension peripheral:
   8:Drivers/STM32F7xx_HAL_Driver/Src/stm32f7xx_hal_rtc_ex.c ****   *           + RTC Time Stamp functions
   9:Drivers/STM32F7xx_HAL_Driver/Src/stm32f7xx_hal_rtc_ex.c ****   *           + RTC Tamper functions 
  10:Drivers/STM32F7xx_HAL_Driver/Src/stm32f7xx_hal_rtc_ex.c ****   *           + RTC Wake-up functions
  11:Drivers/STM32F7xx_HAL_Driver/Src/stm32f7xx_hal_rtc_ex.c ****   *           + Extension Control functions
  12:Drivers/STM32F7xx_HAL_Driver/Src/stm32f7xx_hal_rtc_ex.c ****   *           + Extension RTC features functions    
  13:Drivers/STM32F7xx_HAL_Driver/Src/stm32f7xx_hal_rtc_ex.c ****   *         
  14:Drivers/STM32F7xx_HAL_Driver/Src/stm32f7xx_hal_rtc_ex.c ****   @verbatim
  15:Drivers/STM32F7xx_HAL_Driver/Src/stm32f7xx_hal_rtc_ex.c ****   ==============================================================================
  16:Drivers/STM32F7xx_HAL_Driver/Src/stm32f7xx_hal_rtc_ex.c ****                   ##### How to use this driver #####
  17:Drivers/STM32F7xx_HAL_Driver/Src/stm32f7xx_hal_rtc_ex.c ****   ==============================================================================
  18:Drivers/STM32F7xx_HAL_Driver/Src/stm32f7xx_hal_rtc_ex.c ****   [..] 
  19:Drivers/STM32F7xx_HAL_Driver/Src/stm32f7xx_hal_rtc_ex.c ****     (+) Enable the RTC domain access.
  20:Drivers/STM32F7xx_HAL_Driver/Src/stm32f7xx_hal_rtc_ex.c ****     (+) Configure the RTC Prescaler (Asynchronous and Synchronous) and RTC hour 
  21:Drivers/STM32F7xx_HAL_Driver/Src/stm32f7xx_hal_rtc_ex.c ****         format using the HAL_RTC_Init() function.
  22:Drivers/STM32F7xx_HAL_Driver/Src/stm32f7xx_hal_rtc_ex.c ****   
  23:Drivers/STM32F7xx_HAL_Driver/Src/stm32f7xx_hal_rtc_ex.c ****   *** RTC Wakeup configuration ***
  24:Drivers/STM32F7xx_HAL_Driver/Src/stm32f7xx_hal_rtc_ex.c ****   ================================
  25:Drivers/STM32F7xx_HAL_Driver/Src/stm32f7xx_hal_rtc_ex.c ****   [..] 
  26:Drivers/STM32F7xx_HAL_Driver/Src/stm32f7xx_hal_rtc_ex.c ****     (+) To configure the RTC Wakeup Clock source and Counter use the HAL_RTC_SetWakeUpTimer()
  27:Drivers/STM32F7xx_HAL_Driver/Src/stm32f7xx_hal_rtc_ex.c ****         function. You can also configure the RTC Wakeup timer in interrupt mode 
  28:Drivers/STM32F7xx_HAL_Driver/Src/stm32f7xx_hal_rtc_ex.c ****         using the HAL_RTC_SetWakeUpTimer_IT() function.
  29:Drivers/STM32F7xx_HAL_Driver/Src/stm32f7xx_hal_rtc_ex.c ****     (+) To read the RTC WakeUp Counter register, use the HAL_RTC_GetWakeUpTimer() 
  30:Drivers/STM32F7xx_HAL_Driver/Src/stm32f7xx_hal_rtc_ex.c ****         function.
  31:Drivers/STM32F7xx_HAL_Driver/Src/stm32f7xx_hal_rtc_ex.c ****   
ARM GAS  C:\Users\micha\AppData\Local\Temp\ccafMmKQ.s 			page 2


  32:Drivers/STM32F7xx_HAL_Driver/Src/stm32f7xx_hal_rtc_ex.c ****   *** TimeStamp configuration ***
  33:Drivers/STM32F7xx_HAL_Driver/Src/stm32f7xx_hal_rtc_ex.c ****   ===============================
  34:Drivers/STM32F7xx_HAL_Driver/Src/stm32f7xx_hal_rtc_ex.c ****   [..]
  35:Drivers/STM32F7xx_HAL_Driver/Src/stm32f7xx_hal_rtc_ex.c ****     (+) Enables the RTC TimeStamp using the HAL_RTC_SetTimeStamp() function.
  36:Drivers/STM32F7xx_HAL_Driver/Src/stm32f7xx_hal_rtc_ex.c ****         You can also configure the RTC TimeStamp with interrupt mode using the
  37:Drivers/STM32F7xx_HAL_Driver/Src/stm32f7xx_hal_rtc_ex.c ****         HAL_RTC_SetTimeStamp_IT() function.
  38:Drivers/STM32F7xx_HAL_Driver/Src/stm32f7xx_hal_rtc_ex.c ****     (+) To read the RTC TimeStamp Time and Date register, use the HAL_RTC_GetTimeStamp()
  39:Drivers/STM32F7xx_HAL_Driver/Src/stm32f7xx_hal_rtc_ex.c ****         function.
  40:Drivers/STM32F7xx_HAL_Driver/Src/stm32f7xx_hal_rtc_ex.c **** 
  41:Drivers/STM32F7xx_HAL_Driver/Src/stm32f7xx_hal_rtc_ex.c ****   *** Internal TimeStamp configuration ***
  42:Drivers/STM32F7xx_HAL_Driver/Src/stm32f7xx_hal_rtc_ex.c ****   ===============================
  43:Drivers/STM32F7xx_HAL_Driver/Src/stm32f7xx_hal_rtc_ex.c ****   [..]
  44:Drivers/STM32F7xx_HAL_Driver/Src/stm32f7xx_hal_rtc_ex.c ****     (+) Enables the RTC internal TimeStamp using the HAL_RTC_SetInternalTimeStamp() function.
  45:Drivers/STM32F7xx_HAL_Driver/Src/stm32f7xx_hal_rtc_ex.c ****     (+) To read the RTC TimeStamp Time and Date register, use the HAL_RTC_GetTimeStamp()
  46:Drivers/STM32F7xx_HAL_Driver/Src/stm32f7xx_hal_rtc_ex.c ****         function.
  47:Drivers/STM32F7xx_HAL_Driver/Src/stm32f7xx_hal_rtc_ex.c ****   
  48:Drivers/STM32F7xx_HAL_Driver/Src/stm32f7xx_hal_rtc_ex.c ****   *** Tamper configuration ***
  49:Drivers/STM32F7xx_HAL_Driver/Src/stm32f7xx_hal_rtc_ex.c ****   ============================
  50:Drivers/STM32F7xx_HAL_Driver/Src/stm32f7xx_hal_rtc_ex.c ****   [..]
  51:Drivers/STM32F7xx_HAL_Driver/Src/stm32f7xx_hal_rtc_ex.c ****     (+) Enable the RTC Tamper and Configure the Tamper filter count, trigger Edge 
  52:Drivers/STM32F7xx_HAL_Driver/Src/stm32f7xx_hal_rtc_ex.c ****         or Level according to the Tamper filter (if equal to 0 Edge else Level) 
  53:Drivers/STM32F7xx_HAL_Driver/Src/stm32f7xx_hal_rtc_ex.c ****         value, sampling frequency, NoErase, MaskFlag,  precharge or discharge and
  54:Drivers/STM32F7xx_HAL_Driver/Src/stm32f7xx_hal_rtc_ex.c ****         Pull-UP using the HAL_RTC_SetTamper() function. You can configure RTC Tamper
  55:Drivers/STM32F7xx_HAL_Driver/Src/stm32f7xx_hal_rtc_ex.c ****         with interrupt mode using HAL_RTC_SetTamper_IT() function.
  56:Drivers/STM32F7xx_HAL_Driver/Src/stm32f7xx_hal_rtc_ex.c ****     (+) The default configuration of the Tamper erases the backup registers. To avoid
  57:Drivers/STM32F7xx_HAL_Driver/Src/stm32f7xx_hal_rtc_ex.c ****         erase, enable the NoErase field on the RTC_TAMPCR register.
  58:Drivers/STM32F7xx_HAL_Driver/Src/stm32f7xx_hal_rtc_ex.c ****   
  59:Drivers/STM32F7xx_HAL_Driver/Src/stm32f7xx_hal_rtc_ex.c ****   *** Backup Data Registers configuration ***
  60:Drivers/STM32F7xx_HAL_Driver/Src/stm32f7xx_hal_rtc_ex.c ****   ===========================================
  61:Drivers/STM32F7xx_HAL_Driver/Src/stm32f7xx_hal_rtc_ex.c ****   [..]
  62:Drivers/STM32F7xx_HAL_Driver/Src/stm32f7xx_hal_rtc_ex.c ****     (+) To write to the RTC Backup Data registers, use the HAL_RTC_BKUPWrite()
  63:Drivers/STM32F7xx_HAL_Driver/Src/stm32f7xx_hal_rtc_ex.c ****         function.  
  64:Drivers/STM32F7xx_HAL_Driver/Src/stm32f7xx_hal_rtc_ex.c ****     (+) To read the RTC Backup Data registers, use the HAL_RTC_BKUPRead()
  65:Drivers/STM32F7xx_HAL_Driver/Src/stm32f7xx_hal_rtc_ex.c ****         function.
  66:Drivers/STM32F7xx_HAL_Driver/Src/stm32f7xx_hal_rtc_ex.c ****      
  67:Drivers/STM32F7xx_HAL_Driver/Src/stm32f7xx_hal_rtc_ex.c ****    @endverbatim
  68:Drivers/STM32F7xx_HAL_Driver/Src/stm32f7xx_hal_rtc_ex.c ****   ******************************************************************************
  69:Drivers/STM32F7xx_HAL_Driver/Src/stm32f7xx_hal_rtc_ex.c ****   * @attention
  70:Drivers/STM32F7xx_HAL_Driver/Src/stm32f7xx_hal_rtc_ex.c ****   *
  71:Drivers/STM32F7xx_HAL_Driver/Src/stm32f7xx_hal_rtc_ex.c ****   * <h2><center>&copy; COPYRIGHT(c) 2017 STMicroelectronics</center></h2>
  72:Drivers/STM32F7xx_HAL_Driver/Src/stm32f7xx_hal_rtc_ex.c ****   *
  73:Drivers/STM32F7xx_HAL_Driver/Src/stm32f7xx_hal_rtc_ex.c ****   * Redistribution and use in source and binary forms, with or without modification,
  74:Drivers/STM32F7xx_HAL_Driver/Src/stm32f7xx_hal_rtc_ex.c ****   * are permitted provided that the following conditions are met:
  75:Drivers/STM32F7xx_HAL_Driver/Src/stm32f7xx_hal_rtc_ex.c ****   *   1. Redistributions of source code must retain the above copyright notice,
  76:Drivers/STM32F7xx_HAL_Driver/Src/stm32f7xx_hal_rtc_ex.c ****   *      this list of conditions and the following disclaimer.
  77:Drivers/STM32F7xx_HAL_Driver/Src/stm32f7xx_hal_rtc_ex.c ****   *   2. Redistributions in binary form must reproduce the above copyright notice,
  78:Drivers/STM32F7xx_HAL_Driver/Src/stm32f7xx_hal_rtc_ex.c ****   *      this list of conditions and the following disclaimer in the documentation
  79:Drivers/STM32F7xx_HAL_Driver/Src/stm32f7xx_hal_rtc_ex.c ****   *      and/or other materials provided with the distribution.
  80:Drivers/STM32F7xx_HAL_Driver/Src/stm32f7xx_hal_rtc_ex.c ****   *   3. Neither the name of STMicroelectronics nor the names of its contributors
  81:Drivers/STM32F7xx_HAL_Driver/Src/stm32f7xx_hal_rtc_ex.c ****   *      may be used to endorse or promote products derived from this software
  82:Drivers/STM32F7xx_HAL_Driver/Src/stm32f7xx_hal_rtc_ex.c ****   *      without specific prior written permission.
  83:Drivers/STM32F7xx_HAL_Driver/Src/stm32f7xx_hal_rtc_ex.c ****   *
  84:Drivers/STM32F7xx_HAL_Driver/Src/stm32f7xx_hal_rtc_ex.c ****   * THIS SOFTWARE IS PROVIDED BY THE COPYRIGHT HOLDERS AND CONTRIBUTORS "AS IS"
  85:Drivers/STM32F7xx_HAL_Driver/Src/stm32f7xx_hal_rtc_ex.c ****   * AND ANY EXPRESS OR IMPLIED WARRANTIES, INCLUDING, BUT NOT LIMITED TO, THE
  86:Drivers/STM32F7xx_HAL_Driver/Src/stm32f7xx_hal_rtc_ex.c ****   * IMPLIED WARRANTIES OF MERCHANTABILITY AND FITNESS FOR A PARTICULAR PURPOSE ARE
  87:Drivers/STM32F7xx_HAL_Driver/Src/stm32f7xx_hal_rtc_ex.c ****   * DISCLAIMED. IN NO EVENT SHALL THE COPYRIGHT HOLDER OR CONTRIBUTORS BE LIABLE
  88:Drivers/STM32F7xx_HAL_Driver/Src/stm32f7xx_hal_rtc_ex.c ****   * FOR ANY DIRECT, INDIRECT, INCIDENTAL, SPECIAL, EXEMPLARY, OR CONSEQUENTIAL
ARM GAS  C:\Users\micha\AppData\Local\Temp\ccafMmKQ.s 			page 3


  89:Drivers/STM32F7xx_HAL_Driver/Src/stm32f7xx_hal_rtc_ex.c ****   * DAMAGES (INCLUDING, BUT NOT LIMITED TO, PROCUREMENT OF SUBSTITUTE GOODS OR
  90:Drivers/STM32F7xx_HAL_Driver/Src/stm32f7xx_hal_rtc_ex.c ****   * SERVICES; LOSS OF USE, DATA, OR PROFITS; OR BUSINESS INTERRUPTION) HOWEVER
  91:Drivers/STM32F7xx_HAL_Driver/Src/stm32f7xx_hal_rtc_ex.c ****   * CAUSED AND ON ANY THEORY OF LIABILITY, WHETHER IN CONTRACT, STRICT LIABILITY,
  92:Drivers/STM32F7xx_HAL_Driver/Src/stm32f7xx_hal_rtc_ex.c ****   * OR TORT (INCLUDING NEGLIGENCE OR OTHERWISE) ARISING IN ANY WAY OUT OF THE USE
  93:Drivers/STM32F7xx_HAL_Driver/Src/stm32f7xx_hal_rtc_ex.c ****   * OF THIS SOFTWARE, EVEN IF ADVISED OF THE POSSIBILITY OF SUCH DAMAGE.
  94:Drivers/STM32F7xx_HAL_Driver/Src/stm32f7xx_hal_rtc_ex.c ****   *
  95:Drivers/STM32F7xx_HAL_Driver/Src/stm32f7xx_hal_rtc_ex.c ****   ******************************************************************************
  96:Drivers/STM32F7xx_HAL_Driver/Src/stm32f7xx_hal_rtc_ex.c ****   */ 
  97:Drivers/STM32F7xx_HAL_Driver/Src/stm32f7xx_hal_rtc_ex.c **** 
  98:Drivers/STM32F7xx_HAL_Driver/Src/stm32f7xx_hal_rtc_ex.c **** /* Includes ------------------------------------------------------------------*/
  99:Drivers/STM32F7xx_HAL_Driver/Src/stm32f7xx_hal_rtc_ex.c **** #include "stm32f7xx_hal.h"
 100:Drivers/STM32F7xx_HAL_Driver/Src/stm32f7xx_hal_rtc_ex.c **** 
 101:Drivers/STM32F7xx_HAL_Driver/Src/stm32f7xx_hal_rtc_ex.c **** /** @addtogroup STM32F7xx_HAL_Driver
 102:Drivers/STM32F7xx_HAL_Driver/Src/stm32f7xx_hal_rtc_ex.c ****   * @{
 103:Drivers/STM32F7xx_HAL_Driver/Src/stm32f7xx_hal_rtc_ex.c ****   */
 104:Drivers/STM32F7xx_HAL_Driver/Src/stm32f7xx_hal_rtc_ex.c **** 
 105:Drivers/STM32F7xx_HAL_Driver/Src/stm32f7xx_hal_rtc_ex.c **** /** @defgroup RTCEx RTCEx 
 106:Drivers/STM32F7xx_HAL_Driver/Src/stm32f7xx_hal_rtc_ex.c ****   * @brief RTC Extended HAL module driver
 107:Drivers/STM32F7xx_HAL_Driver/Src/stm32f7xx_hal_rtc_ex.c ****   * @{
 108:Drivers/STM32F7xx_HAL_Driver/Src/stm32f7xx_hal_rtc_ex.c ****   */
 109:Drivers/STM32F7xx_HAL_Driver/Src/stm32f7xx_hal_rtc_ex.c **** 
 110:Drivers/STM32F7xx_HAL_Driver/Src/stm32f7xx_hal_rtc_ex.c **** #ifdef HAL_RTC_MODULE_ENABLED
 111:Drivers/STM32F7xx_HAL_Driver/Src/stm32f7xx_hal_rtc_ex.c **** 
 112:Drivers/STM32F7xx_HAL_Driver/Src/stm32f7xx_hal_rtc_ex.c **** /* Private typedef -----------------------------------------------------------*/
 113:Drivers/STM32F7xx_HAL_Driver/Src/stm32f7xx_hal_rtc_ex.c **** /* Private define ------------------------------------------------------------*/
 114:Drivers/STM32F7xx_HAL_Driver/Src/stm32f7xx_hal_rtc_ex.c **** /* Private macro -------------------------------------------------------------*/
 115:Drivers/STM32F7xx_HAL_Driver/Src/stm32f7xx_hal_rtc_ex.c **** /* Private variables ---------------------------------------------------------*/
 116:Drivers/STM32F7xx_HAL_Driver/Src/stm32f7xx_hal_rtc_ex.c **** /* Private function prototypes -----------------------------------------------*/
 117:Drivers/STM32F7xx_HAL_Driver/Src/stm32f7xx_hal_rtc_ex.c **** /* Private functions ---------------------------------------------------------*/
 118:Drivers/STM32F7xx_HAL_Driver/Src/stm32f7xx_hal_rtc_ex.c **** 
 119:Drivers/STM32F7xx_HAL_Driver/Src/stm32f7xx_hal_rtc_ex.c **** /** @defgroup RTCEx_Exported_Functions RTCEx Exported Functions
 120:Drivers/STM32F7xx_HAL_Driver/Src/stm32f7xx_hal_rtc_ex.c ****   * @{
 121:Drivers/STM32F7xx_HAL_Driver/Src/stm32f7xx_hal_rtc_ex.c ****   */
 122:Drivers/STM32F7xx_HAL_Driver/Src/stm32f7xx_hal_rtc_ex.c ****   
 123:Drivers/STM32F7xx_HAL_Driver/Src/stm32f7xx_hal_rtc_ex.c **** 
 124:Drivers/STM32F7xx_HAL_Driver/Src/stm32f7xx_hal_rtc_ex.c **** /** @defgroup RTCEx_Group1 RTC TimeStamp and Tamper functions
 125:Drivers/STM32F7xx_HAL_Driver/Src/stm32f7xx_hal_rtc_ex.c ****  *  @brief   RTC TimeStamp and Tamper functions
 126:Drivers/STM32F7xx_HAL_Driver/Src/stm32f7xx_hal_rtc_ex.c ****  *
 127:Drivers/STM32F7xx_HAL_Driver/Src/stm32f7xx_hal_rtc_ex.c **** @verbatim   
 128:Drivers/STM32F7xx_HAL_Driver/Src/stm32f7xx_hal_rtc_ex.c ****  ===============================================================================
 129:Drivers/STM32F7xx_HAL_Driver/Src/stm32f7xx_hal_rtc_ex.c ****                  ##### RTC TimeStamp and Tamper functions #####
 130:Drivers/STM32F7xx_HAL_Driver/Src/stm32f7xx_hal_rtc_ex.c ****  ===============================================================================  
 131:Drivers/STM32F7xx_HAL_Driver/Src/stm32f7xx_hal_rtc_ex.c ****  
 132:Drivers/STM32F7xx_HAL_Driver/Src/stm32f7xx_hal_rtc_ex.c ****  [..] This section provides functions allowing to configure TimeStamp feature
 133:Drivers/STM32F7xx_HAL_Driver/Src/stm32f7xx_hal_rtc_ex.c **** 
 134:Drivers/STM32F7xx_HAL_Driver/Src/stm32f7xx_hal_rtc_ex.c **** @endverbatim
 135:Drivers/STM32F7xx_HAL_Driver/Src/stm32f7xx_hal_rtc_ex.c ****   * @{
 136:Drivers/STM32F7xx_HAL_Driver/Src/stm32f7xx_hal_rtc_ex.c ****   */
 137:Drivers/STM32F7xx_HAL_Driver/Src/stm32f7xx_hal_rtc_ex.c **** 
 138:Drivers/STM32F7xx_HAL_Driver/Src/stm32f7xx_hal_rtc_ex.c **** /**
 139:Drivers/STM32F7xx_HAL_Driver/Src/stm32f7xx_hal_rtc_ex.c ****   * @brief  Sets TimeStamp.
 140:Drivers/STM32F7xx_HAL_Driver/Src/stm32f7xx_hal_rtc_ex.c ****   * @note   This API must be called before enabling the TimeStamp feature. 
 141:Drivers/STM32F7xx_HAL_Driver/Src/stm32f7xx_hal_rtc_ex.c ****   * @param  hrtc pointer to a RTC_HandleTypeDef structure that contains
 142:Drivers/STM32F7xx_HAL_Driver/Src/stm32f7xx_hal_rtc_ex.c ****   *                the configuration information for RTC.
 143:Drivers/STM32F7xx_HAL_Driver/Src/stm32f7xx_hal_rtc_ex.c ****   * @param  TimeStampEdge Specifies the pin edge on which the TimeStamp is 
 144:Drivers/STM32F7xx_HAL_Driver/Src/stm32f7xx_hal_rtc_ex.c ****   *         activated.
 145:Drivers/STM32F7xx_HAL_Driver/Src/stm32f7xx_hal_rtc_ex.c ****   *          This parameter can be one of the following values:
ARM GAS  C:\Users\micha\AppData\Local\Temp\ccafMmKQ.s 			page 4


 146:Drivers/STM32F7xx_HAL_Driver/Src/stm32f7xx_hal_rtc_ex.c ****   *             @arg RTC_TIMESTAMPEDGE_RISING: the Time stamp event occurs on the  
 147:Drivers/STM32F7xx_HAL_Driver/Src/stm32f7xx_hal_rtc_ex.c ****   *                                        rising edge of the related pin.
 148:Drivers/STM32F7xx_HAL_Driver/Src/stm32f7xx_hal_rtc_ex.c ****   *             @arg RTC_TIMESTAMPEDGE_FALLING: the Time stamp event occurs on the 
 149:Drivers/STM32F7xx_HAL_Driver/Src/stm32f7xx_hal_rtc_ex.c ****   *                                         falling edge of the related pin.
 150:Drivers/STM32F7xx_HAL_Driver/Src/stm32f7xx_hal_rtc_ex.c ****   * @param  RTC_TimeStampPin specifies the RTC TimeStamp Pin.
 151:Drivers/STM32F7xx_HAL_Driver/Src/stm32f7xx_hal_rtc_ex.c ****   *          This parameter can be one of the following values:
 152:Drivers/STM32F7xx_HAL_Driver/Src/stm32f7xx_hal_rtc_ex.c ****   *             @arg RTC_TIMESTAMPPIN_PC13: PC13 is selected as RTC TimeStamp Pin.
 153:Drivers/STM32F7xx_HAL_Driver/Src/stm32f7xx_hal_rtc_ex.c ****   *             @arg RTC_TIMESTAMPPIN_PI8: PI8 is selected as RTC TimeStamp Pin.  
 154:Drivers/STM32F7xx_HAL_Driver/Src/stm32f7xx_hal_rtc_ex.c ****   *             @arg RTC_TIMESTAMPPIN_PC1: PC1 is selected as RTC TimeStamp Pin.   
 155:Drivers/STM32F7xx_HAL_Driver/Src/stm32f7xx_hal_rtc_ex.c ****   * @retval HAL status
 156:Drivers/STM32F7xx_HAL_Driver/Src/stm32f7xx_hal_rtc_ex.c ****   */
 157:Drivers/STM32F7xx_HAL_Driver/Src/stm32f7xx_hal_rtc_ex.c **** HAL_StatusTypeDef HAL_RTCEx_SetTimeStamp(RTC_HandleTypeDef *hrtc, uint32_t TimeStampEdge, uint32_t 
 158:Drivers/STM32F7xx_HAL_Driver/Src/stm32f7xx_hal_rtc_ex.c **** {
  28              		.loc 1 158 0
  29              		.cfi_startproc
  30              		@ args = 0, pretend = 0, frame = 0
  31              		@ frame_needed = 0, uses_anonymous_args = 0
  32              		@ link register save eliminated.
  33              	.LVL0:
  34 0000 70B4     		push	{r4, r5, r6}
  35              	.LCFI0:
  36              		.cfi_def_cfa_offset 12
  37              		.cfi_offset 4, -12
  38              		.cfi_offset 5, -8
  39              		.cfi_offset 6, -4
  40              	.LVL1:
 159:Drivers/STM32F7xx_HAL_Driver/Src/stm32f7xx_hal_rtc_ex.c ****   uint32_t tmpreg = 0;
 160:Drivers/STM32F7xx_HAL_Driver/Src/stm32f7xx_hal_rtc_ex.c ****   
 161:Drivers/STM32F7xx_HAL_Driver/Src/stm32f7xx_hal_rtc_ex.c ****   /* Check the parameters */
 162:Drivers/STM32F7xx_HAL_Driver/Src/stm32f7xx_hal_rtc_ex.c ****   assert_param(IS_TIMESTAMP_EDGE(TimeStampEdge));
 163:Drivers/STM32F7xx_HAL_Driver/Src/stm32f7xx_hal_rtc_ex.c ****   assert_param(IS_RTC_TIMESTAMP_PIN(RTC_TimeStampPin));
 164:Drivers/STM32F7xx_HAL_Driver/Src/stm32f7xx_hal_rtc_ex.c ****   
 165:Drivers/STM32F7xx_HAL_Driver/Src/stm32f7xx_hal_rtc_ex.c ****   /* Process Locked */ 
 166:Drivers/STM32F7xx_HAL_Driver/Src/stm32f7xx_hal_rtc_ex.c ****   __HAL_LOCK(hrtc);
  41              		.loc 1 166 0
  42 0002 047F     		ldrb	r4, [r0, #28]	@ zero_extendqisi2
  43 0004 012C     		cmp	r4, #1
  44 0006 27D0     		beq	.L3
  45              		.loc 1 166 0 is_stmt 0 discriminator 2
  46 0008 0124     		movs	r4, #1
  47 000a 0477     		strb	r4, [r0, #28]
 167:Drivers/STM32F7xx_HAL_Driver/Src/stm32f7xx_hal_rtc_ex.c ****   
 168:Drivers/STM32F7xx_HAL_Driver/Src/stm32f7xx_hal_rtc_ex.c ****   hrtc->State = HAL_RTC_STATE_BUSY;
  48              		.loc 1 168 0 is_stmt 1 discriminator 2
  49 000c 0223     		movs	r3, #2
  50 000e 4377     		strb	r3, [r0, #29]
 169:Drivers/STM32F7xx_HAL_Driver/Src/stm32f7xx_hal_rtc_ex.c ****   
 170:Drivers/STM32F7xx_HAL_Driver/Src/stm32f7xx_hal_rtc_ex.c ****   /* Get the RTC_CR register and clear the bits to be configured */
 171:Drivers/STM32F7xx_HAL_Driver/Src/stm32f7xx_hal_rtc_ex.c ****   tmpreg = (uint32_t)(hrtc->Instance->CR & (uint32_t)~(RTC_CR_TSEDGE | RTC_CR_TSE));
  51              		.loc 1 171 0 discriminator 2
  52 0010 0568     		ldr	r5, [r0]
  53 0012 AE68     		ldr	r6, [r5, #8]
  54 0014 A3F60B03 		subw	r3, r3, #2059
  55 0018 3340     		ands	r3, r3, r6
  56              	.LVL2:
 172:Drivers/STM32F7xx_HAL_Driver/Src/stm32f7xx_hal_rtc_ex.c ****     
 173:Drivers/STM32F7xx_HAL_Driver/Src/stm32f7xx_hal_rtc_ex.c ****   tmpreg|= TimeStampEdge;
ARM GAS  C:\Users\micha\AppData\Local\Temp\ccafMmKQ.s 			page 5


  57              		.loc 1 173 0 discriminator 2
  58 001a 1943     		orrs	r1, r1, r3
  59              	.LVL3:
 174:Drivers/STM32F7xx_HAL_Driver/Src/stm32f7xx_hal_rtc_ex.c ****   
 175:Drivers/STM32F7xx_HAL_Driver/Src/stm32f7xx_hal_rtc_ex.c ****   /* Disable the write protection for RTC registers */
 176:Drivers/STM32F7xx_HAL_Driver/Src/stm32f7xx_hal_rtc_ex.c ****   __HAL_RTC_WRITEPROTECTION_DISABLE(hrtc);
  60              		.loc 1 176 0 discriminator 2
  61 001c CA23     		movs	r3, #202
  62 001e 6B62     		str	r3, [r5, #36]
  63 0020 0368     		ldr	r3, [r0]
  64 0022 5325     		movs	r5, #83
  65 0024 5D62     		str	r5, [r3, #36]
 177:Drivers/STM32F7xx_HAL_Driver/Src/stm32f7xx_hal_rtc_ex.c ****   
 178:Drivers/STM32F7xx_HAL_Driver/Src/stm32f7xx_hal_rtc_ex.c ****   hrtc->Instance->OR &= (uint32_t)~RTC_OR_TSINSEL;
  66              		.loc 1 178 0 discriminator 2
  67 0026 0568     		ldr	r5, [r0]
  68 0028 EB6C     		ldr	r3, [r5, #76]
  69 002a 23F00603 		bic	r3, r3, #6
  70 002e EB64     		str	r3, [r5, #76]
 179:Drivers/STM32F7xx_HAL_Driver/Src/stm32f7xx_hal_rtc_ex.c ****   hrtc->Instance->OR |= (uint32_t)(RTC_TimeStampPin); 
  71              		.loc 1 179 0 discriminator 2
  72 0030 0568     		ldr	r5, [r0]
  73 0032 EB6C     		ldr	r3, [r5, #76]
  74 0034 1A43     		orrs	r2, r2, r3
  75              	.LVL4:
  76 0036 EA64     		str	r2, [r5, #76]
 180:Drivers/STM32F7xx_HAL_Driver/Src/stm32f7xx_hal_rtc_ex.c ****   
 181:Drivers/STM32F7xx_HAL_Driver/Src/stm32f7xx_hal_rtc_ex.c ****   /* Configure the Time Stamp TSEDGE and Enable bits */
 182:Drivers/STM32F7xx_HAL_Driver/Src/stm32f7xx_hal_rtc_ex.c ****   hrtc->Instance->CR = (uint32_t)tmpreg;
  77              		.loc 1 182 0 discriminator 2
  78 0038 0368     		ldr	r3, [r0]
  79 003a 9960     		str	r1, [r3, #8]
 183:Drivers/STM32F7xx_HAL_Driver/Src/stm32f7xx_hal_rtc_ex.c ****   
 184:Drivers/STM32F7xx_HAL_Driver/Src/stm32f7xx_hal_rtc_ex.c ****   __HAL_RTC_TIMESTAMP_ENABLE(hrtc);
  80              		.loc 1 184 0 discriminator 2
  81 003c 0268     		ldr	r2, [r0]
  82 003e 9368     		ldr	r3, [r2, #8]
  83 0040 43F40063 		orr	r3, r3, #2048
  84 0044 9360     		str	r3, [r2, #8]
 185:Drivers/STM32F7xx_HAL_Driver/Src/stm32f7xx_hal_rtc_ex.c ****   
 186:Drivers/STM32F7xx_HAL_Driver/Src/stm32f7xx_hal_rtc_ex.c ****   /* Enable the write protection for RTC registers */
 187:Drivers/STM32F7xx_HAL_Driver/Src/stm32f7xx_hal_rtc_ex.c ****   __HAL_RTC_WRITEPROTECTION_ENABLE(hrtc);    
  85              		.loc 1 187 0 discriminator 2
  86 0046 0368     		ldr	r3, [r0]
  87 0048 FF22     		movs	r2, #255
  88 004a 5A62     		str	r2, [r3, #36]
 188:Drivers/STM32F7xx_HAL_Driver/Src/stm32f7xx_hal_rtc_ex.c ****   
 189:Drivers/STM32F7xx_HAL_Driver/Src/stm32f7xx_hal_rtc_ex.c ****   /* Change RTC state */
 190:Drivers/STM32F7xx_HAL_Driver/Src/stm32f7xx_hal_rtc_ex.c ****   hrtc->State = HAL_RTC_STATE_READY; 
  89              		.loc 1 190 0 discriminator 2
  90 004c 4477     		strb	r4, [r0, #29]
 191:Drivers/STM32F7xx_HAL_Driver/Src/stm32f7xx_hal_rtc_ex.c ****   
 192:Drivers/STM32F7xx_HAL_Driver/Src/stm32f7xx_hal_rtc_ex.c ****   /* Process Unlocked */ 
 193:Drivers/STM32F7xx_HAL_Driver/Src/stm32f7xx_hal_rtc_ex.c ****   __HAL_UNLOCK(hrtc);
  91              		.loc 1 193 0 discriminator 2
  92 004e 0023     		movs	r3, #0
  93 0050 0377     		strb	r3, [r0, #28]
ARM GAS  C:\Users\micha\AppData\Local\Temp\ccafMmKQ.s 			page 6


 194:Drivers/STM32F7xx_HAL_Driver/Src/stm32f7xx_hal_rtc_ex.c ****   
 195:Drivers/STM32F7xx_HAL_Driver/Src/stm32f7xx_hal_rtc_ex.c ****   return HAL_OK;
  94              		.loc 1 195 0 discriminator 2
  95 0052 1846     		mov	r0, r3
  96              	.LVL5:
  97              	.L2:
 196:Drivers/STM32F7xx_HAL_Driver/Src/stm32f7xx_hal_rtc_ex.c **** }
  98              		.loc 1 196 0
  99 0054 70BC     		pop	{r4, r5, r6}
 100              	.LCFI1:
 101              		.cfi_remember_state
 102              		.cfi_restore 6
 103              		.cfi_restore 5
 104              		.cfi_restore 4
 105              		.cfi_def_cfa_offset 0
 106 0056 7047     		bx	lr
 107              	.LVL6:
 108              	.L3:
 109              	.LCFI2:
 110              		.cfi_restore_state
 166:Drivers/STM32F7xx_HAL_Driver/Src/stm32f7xx_hal_rtc_ex.c ****   
 111              		.loc 1 166 0
 112 0058 0220     		movs	r0, #2
 113              	.LVL7:
 114 005a FBE7     		b	.L2
 115              		.cfi_endproc
 116              	.LFE138:
 118              		.section	.text.HAL_RTCEx_SetTimeStamp_IT,"ax",%progbits
 119              		.align	1
 120              		.global	HAL_RTCEx_SetTimeStamp_IT
 121              		.syntax unified
 122              		.thumb
 123              		.thumb_func
 124              		.fpu fpv5-sp-d16
 126              	HAL_RTCEx_SetTimeStamp_IT:
 127              	.LFB139:
 197:Drivers/STM32F7xx_HAL_Driver/Src/stm32f7xx_hal_rtc_ex.c **** 
 198:Drivers/STM32F7xx_HAL_Driver/Src/stm32f7xx_hal_rtc_ex.c **** /**
 199:Drivers/STM32F7xx_HAL_Driver/Src/stm32f7xx_hal_rtc_ex.c ****   * @brief  Sets TimeStamp with Interrupt. 
 200:Drivers/STM32F7xx_HAL_Driver/Src/stm32f7xx_hal_rtc_ex.c ****   * @param  hrtc pointer to a RTC_HandleTypeDef structure that contains
 201:Drivers/STM32F7xx_HAL_Driver/Src/stm32f7xx_hal_rtc_ex.c ****   *                the configuration information for RTC.
 202:Drivers/STM32F7xx_HAL_Driver/Src/stm32f7xx_hal_rtc_ex.c ****   * @note   This API must be called before enabling the TimeStamp feature.
 203:Drivers/STM32F7xx_HAL_Driver/Src/stm32f7xx_hal_rtc_ex.c ****   * @param  TimeStampEdge Specifies the pin edge on which the TimeStamp is 
 204:Drivers/STM32F7xx_HAL_Driver/Src/stm32f7xx_hal_rtc_ex.c ****   *         activated.
 205:Drivers/STM32F7xx_HAL_Driver/Src/stm32f7xx_hal_rtc_ex.c ****   *          This parameter can be one of the following values:
 206:Drivers/STM32F7xx_HAL_Driver/Src/stm32f7xx_hal_rtc_ex.c ****   *             @arg RTC_TIMESTAMPEDGE_RISING: the Time stamp event occurs on the  
 207:Drivers/STM32F7xx_HAL_Driver/Src/stm32f7xx_hal_rtc_ex.c ****   *                                        rising edge of the related pin.
 208:Drivers/STM32F7xx_HAL_Driver/Src/stm32f7xx_hal_rtc_ex.c ****   *             @arg RTC_TIMESTAMPEDGE_FALLING: the Time stamp event occurs on the 
 209:Drivers/STM32F7xx_HAL_Driver/Src/stm32f7xx_hal_rtc_ex.c ****   *                                         falling edge of the related pin.
 210:Drivers/STM32F7xx_HAL_Driver/Src/stm32f7xx_hal_rtc_ex.c ****   * @param  RTC_TimeStampPin Specifies the RTC TimeStamp Pin.
 211:Drivers/STM32F7xx_HAL_Driver/Src/stm32f7xx_hal_rtc_ex.c ****   *          This parameter can be one of the following values:
 212:Drivers/STM32F7xx_HAL_Driver/Src/stm32f7xx_hal_rtc_ex.c ****   *             @arg RTC_TIMESTAMPPIN_PC13: PC13 is selected as RTC TimeStamp Pin.
 213:Drivers/STM32F7xx_HAL_Driver/Src/stm32f7xx_hal_rtc_ex.c ****   *             @arg RTC_TIMESTAMPPIN_PI8: PI8 is selected as RTC TimeStamp Pin.  
 214:Drivers/STM32F7xx_HAL_Driver/Src/stm32f7xx_hal_rtc_ex.c ****   *             @arg RTC_TIMESTAMPPIN_PC1: PC1 is selected as RTC TimeStamp Pin.   
 215:Drivers/STM32F7xx_HAL_Driver/Src/stm32f7xx_hal_rtc_ex.c ****   * @retval HAL status
 216:Drivers/STM32F7xx_HAL_Driver/Src/stm32f7xx_hal_rtc_ex.c ****   */
 217:Drivers/STM32F7xx_HAL_Driver/Src/stm32f7xx_hal_rtc_ex.c **** HAL_StatusTypeDef HAL_RTCEx_SetTimeStamp_IT(RTC_HandleTypeDef *hrtc, uint32_t TimeStampEdge, uint32
ARM GAS  C:\Users\micha\AppData\Local\Temp\ccafMmKQ.s 			page 7


 218:Drivers/STM32F7xx_HAL_Driver/Src/stm32f7xx_hal_rtc_ex.c **** {
 128              		.loc 1 218 0
 129              		.cfi_startproc
 130              		@ args = 0, pretend = 0, frame = 0
 131              		@ frame_needed = 0, uses_anonymous_args = 0
 132              		@ link register save eliminated.
 133              	.LVL8:
 134 0000 70B4     		push	{r4, r5, r6}
 135              	.LCFI3:
 136              		.cfi_def_cfa_offset 12
 137              		.cfi_offset 4, -12
 138              		.cfi_offset 5, -8
 139              		.cfi_offset 6, -4
 140              	.LVL9:
 219:Drivers/STM32F7xx_HAL_Driver/Src/stm32f7xx_hal_rtc_ex.c ****   uint32_t tmpreg = 0;
 220:Drivers/STM32F7xx_HAL_Driver/Src/stm32f7xx_hal_rtc_ex.c ****   
 221:Drivers/STM32F7xx_HAL_Driver/Src/stm32f7xx_hal_rtc_ex.c ****   /* Check the parameters */
 222:Drivers/STM32F7xx_HAL_Driver/Src/stm32f7xx_hal_rtc_ex.c ****   assert_param(IS_TIMESTAMP_EDGE(TimeStampEdge));
 223:Drivers/STM32F7xx_HAL_Driver/Src/stm32f7xx_hal_rtc_ex.c ****   assert_param(IS_RTC_TIMESTAMP_PIN(RTC_TimeStampPin));
 224:Drivers/STM32F7xx_HAL_Driver/Src/stm32f7xx_hal_rtc_ex.c ****   
 225:Drivers/STM32F7xx_HAL_Driver/Src/stm32f7xx_hal_rtc_ex.c ****   /* Process Locked */ 
 226:Drivers/STM32F7xx_HAL_Driver/Src/stm32f7xx_hal_rtc_ex.c ****   __HAL_LOCK(hrtc);
 141              		.loc 1 226 0
 142 0002 047F     		ldrb	r4, [r0, #28]	@ zero_extendqisi2
 143 0004 012C     		cmp	r4, #1
 144 0006 3BD0     		beq	.L7
 145              		.loc 1 226 0 is_stmt 0 discriminator 2
 146 0008 0124     		movs	r4, #1
 147 000a 0477     		strb	r4, [r0, #28]
 227:Drivers/STM32F7xx_HAL_Driver/Src/stm32f7xx_hal_rtc_ex.c ****   
 228:Drivers/STM32F7xx_HAL_Driver/Src/stm32f7xx_hal_rtc_ex.c ****   hrtc->State = HAL_RTC_STATE_BUSY;
 148              		.loc 1 228 0 is_stmt 1 discriminator 2
 149 000c 0223     		movs	r3, #2
 150 000e 4377     		strb	r3, [r0, #29]
 229:Drivers/STM32F7xx_HAL_Driver/Src/stm32f7xx_hal_rtc_ex.c ****   
 230:Drivers/STM32F7xx_HAL_Driver/Src/stm32f7xx_hal_rtc_ex.c ****   /* Get the RTC_CR register and clear the bits to be configured */
 231:Drivers/STM32F7xx_HAL_Driver/Src/stm32f7xx_hal_rtc_ex.c ****   tmpreg = (uint32_t)(hrtc->Instance->CR & (uint32_t)~(RTC_CR_TSEDGE | RTC_CR_TSE));
 151              		.loc 1 231 0 discriminator 2
 152 0010 0568     		ldr	r5, [r0]
 153 0012 AE68     		ldr	r6, [r5, #8]
 154 0014 A3F60B03 		subw	r3, r3, #2059
 155 0018 3340     		ands	r3, r3, r6
 156              	.LVL10:
 232:Drivers/STM32F7xx_HAL_Driver/Src/stm32f7xx_hal_rtc_ex.c ****   
 233:Drivers/STM32F7xx_HAL_Driver/Src/stm32f7xx_hal_rtc_ex.c ****   tmpreg |= TimeStampEdge;
 157              		.loc 1 233 0 discriminator 2
 158 001a 0B43     		orrs	r3, r3, r1
 159              	.LVL11:
 234:Drivers/STM32F7xx_HAL_Driver/Src/stm32f7xx_hal_rtc_ex.c ****   
 235:Drivers/STM32F7xx_HAL_Driver/Src/stm32f7xx_hal_rtc_ex.c ****   /* Disable the write protection for RTC registers */
 236:Drivers/STM32F7xx_HAL_Driver/Src/stm32f7xx_hal_rtc_ex.c ****   __HAL_RTC_WRITEPROTECTION_DISABLE(hrtc);
 160              		.loc 1 236 0 discriminator 2
 161 001c CA21     		movs	r1, #202
 162              	.LVL12:
 163 001e 6962     		str	r1, [r5, #36]
 164 0020 0168     		ldr	r1, [r0]
 165 0022 5325     		movs	r5, #83
ARM GAS  C:\Users\micha\AppData\Local\Temp\ccafMmKQ.s 			page 8


 166 0024 4D62     		str	r5, [r1, #36]
 237:Drivers/STM32F7xx_HAL_Driver/Src/stm32f7xx_hal_rtc_ex.c ****   
 238:Drivers/STM32F7xx_HAL_Driver/Src/stm32f7xx_hal_rtc_ex.c ****   /* Configure the Time Stamp TSEDGE and Enable bits */
 239:Drivers/STM32F7xx_HAL_Driver/Src/stm32f7xx_hal_rtc_ex.c ****   hrtc->Instance->CR = (uint32_t)tmpreg;
 167              		.loc 1 239 0 discriminator 2
 168 0026 0168     		ldr	r1, [r0]
 169 0028 8B60     		str	r3, [r1, #8]
 240:Drivers/STM32F7xx_HAL_Driver/Src/stm32f7xx_hal_rtc_ex.c ****   
 241:Drivers/STM32F7xx_HAL_Driver/Src/stm32f7xx_hal_rtc_ex.c ****   hrtc->Instance->OR &= (uint32_t)~RTC_OR_TSINSEL;
 170              		.loc 1 241 0 discriminator 2
 171 002a 0168     		ldr	r1, [r0]
 172 002c CB6C     		ldr	r3, [r1, #76]
 173              	.LVL13:
 174 002e 23F00603 		bic	r3, r3, #6
 175 0032 CB64     		str	r3, [r1, #76]
 242:Drivers/STM32F7xx_HAL_Driver/Src/stm32f7xx_hal_rtc_ex.c ****   hrtc->Instance->OR |= (uint32_t)(RTC_TimeStampPin);
 176              		.loc 1 242 0 discriminator 2
 177 0034 0168     		ldr	r1, [r0]
 178 0036 CB6C     		ldr	r3, [r1, #76]
 179 0038 1A43     		orrs	r2, r2, r3
 180              	.LVL14:
 181 003a CA64     		str	r2, [r1, #76]
 243:Drivers/STM32F7xx_HAL_Driver/Src/stm32f7xx_hal_rtc_ex.c ****   
 244:Drivers/STM32F7xx_HAL_Driver/Src/stm32f7xx_hal_rtc_ex.c ****   /* Clear RTC Timestamp flag */
 245:Drivers/STM32F7xx_HAL_Driver/Src/stm32f7xx_hal_rtc_ex.c ****   __HAL_RTC_TIMESTAMP_CLEAR_FLAG(hrtc, RTC_FLAG_TSF);
 182              		.loc 1 245 0 discriminator 2
 183 003c 0268     		ldr	r2, [r0]
 184 003e D368     		ldr	r3, [r2, #12]
 185 0040 DBB2     		uxtb	r3, r3
 186 0042 63F40863 		orn	r3, r3, #2176
 187 0046 D360     		str	r3, [r2, #12]
 246:Drivers/STM32F7xx_HAL_Driver/Src/stm32f7xx_hal_rtc_ex.c ****   
 247:Drivers/STM32F7xx_HAL_Driver/Src/stm32f7xx_hal_rtc_ex.c ****   __HAL_RTC_TIMESTAMP_ENABLE(hrtc);
 188              		.loc 1 247 0 discriminator 2
 189 0048 0268     		ldr	r2, [r0]
 190 004a 9368     		ldr	r3, [r2, #8]
 191 004c 43F40063 		orr	r3, r3, #2048
 192 0050 9360     		str	r3, [r2, #8]
 248:Drivers/STM32F7xx_HAL_Driver/Src/stm32f7xx_hal_rtc_ex.c ****   
 249:Drivers/STM32F7xx_HAL_Driver/Src/stm32f7xx_hal_rtc_ex.c ****   /* Enable IT timestamp */ 
 250:Drivers/STM32F7xx_HAL_Driver/Src/stm32f7xx_hal_rtc_ex.c ****   __HAL_RTC_TIMESTAMP_ENABLE_IT(hrtc,RTC_IT_TS);
 193              		.loc 1 250 0 discriminator 2
 194 0052 0268     		ldr	r2, [r0]
 195 0054 9368     		ldr	r3, [r2, #8]
 196 0056 43F40043 		orr	r3, r3, #32768
 197 005a 9360     		str	r3, [r2, #8]
 251:Drivers/STM32F7xx_HAL_Driver/Src/stm32f7xx_hal_rtc_ex.c ****   
 252:Drivers/STM32F7xx_HAL_Driver/Src/stm32f7xx_hal_rtc_ex.c ****   /* RTC timestamp Interrupt Configuration: EXTI configuration */
 253:Drivers/STM32F7xx_HAL_Driver/Src/stm32f7xx_hal_rtc_ex.c ****   __HAL_RTC_TAMPER_TIMESTAMP_EXTI_ENABLE_IT();
 198              		.loc 1 253 0 discriminator 2
 199 005c 094B     		ldr	r3, .L9
 200 005e 1A68     		ldr	r2, [r3]
 201 0060 42F40012 		orr	r2, r2, #2097152
 202 0064 1A60     		str	r2, [r3]
 254:Drivers/STM32F7xx_HAL_Driver/Src/stm32f7xx_hal_rtc_ex.c ****   
 255:Drivers/STM32F7xx_HAL_Driver/Src/stm32f7xx_hal_rtc_ex.c ****   EXTI->RTSR |= RTC_EXTI_LINE_TAMPER_TIMESTAMP_EVENT;
 203              		.loc 1 255 0 discriminator 2
ARM GAS  C:\Users\micha\AppData\Local\Temp\ccafMmKQ.s 			page 9


 204 0066 9A68     		ldr	r2, [r3, #8]
 205 0068 42F40012 		orr	r2, r2, #2097152
 206 006c 9A60     		str	r2, [r3, #8]
 256:Drivers/STM32F7xx_HAL_Driver/Src/stm32f7xx_hal_rtc_ex.c ****   
 257:Drivers/STM32F7xx_HAL_Driver/Src/stm32f7xx_hal_rtc_ex.c ****   /* Enable the write protection for RTC registers */
 258:Drivers/STM32F7xx_HAL_Driver/Src/stm32f7xx_hal_rtc_ex.c ****   __HAL_RTC_WRITEPROTECTION_ENABLE(hrtc);  
 207              		.loc 1 258 0 discriminator 2
 208 006e 0368     		ldr	r3, [r0]
 209 0070 FF22     		movs	r2, #255
 210 0072 5A62     		str	r2, [r3, #36]
 259:Drivers/STM32F7xx_HAL_Driver/Src/stm32f7xx_hal_rtc_ex.c ****   
 260:Drivers/STM32F7xx_HAL_Driver/Src/stm32f7xx_hal_rtc_ex.c ****   hrtc->State = HAL_RTC_STATE_READY;  
 211              		.loc 1 260 0 discriminator 2
 212 0074 4477     		strb	r4, [r0, #29]
 261:Drivers/STM32F7xx_HAL_Driver/Src/stm32f7xx_hal_rtc_ex.c ****   
 262:Drivers/STM32F7xx_HAL_Driver/Src/stm32f7xx_hal_rtc_ex.c ****   /* Process Unlocked */ 
 263:Drivers/STM32F7xx_HAL_Driver/Src/stm32f7xx_hal_rtc_ex.c ****   __HAL_UNLOCK(hrtc);
 213              		.loc 1 263 0 discriminator 2
 214 0076 0023     		movs	r3, #0
 215 0078 0377     		strb	r3, [r0, #28]
 264:Drivers/STM32F7xx_HAL_Driver/Src/stm32f7xx_hal_rtc_ex.c ****   
 265:Drivers/STM32F7xx_HAL_Driver/Src/stm32f7xx_hal_rtc_ex.c ****   return HAL_OK;
 216              		.loc 1 265 0 discriminator 2
 217 007a 1846     		mov	r0, r3
 218              	.LVL15:
 219              	.L6:
 266:Drivers/STM32F7xx_HAL_Driver/Src/stm32f7xx_hal_rtc_ex.c **** }
 220              		.loc 1 266 0
 221 007c 70BC     		pop	{r4, r5, r6}
 222              	.LCFI4:
 223              		.cfi_remember_state
 224              		.cfi_restore 6
 225              		.cfi_restore 5
 226              		.cfi_restore 4
 227              		.cfi_def_cfa_offset 0
 228 007e 7047     		bx	lr
 229              	.LVL16:
 230              	.L7:
 231              	.LCFI5:
 232              		.cfi_restore_state
 226:Drivers/STM32F7xx_HAL_Driver/Src/stm32f7xx_hal_rtc_ex.c ****   
 233              		.loc 1 226 0
 234 0080 0220     		movs	r0, #2
 235              	.LVL17:
 236 0082 FBE7     		b	.L6
 237              	.L10:
 238              		.align	2
 239              	.L9:
 240 0084 003C0140 		.word	1073822720
 241              		.cfi_endproc
 242              	.LFE139:
 244              		.section	.text.HAL_RTCEx_DeactivateTimeStamp,"ax",%progbits
 245              		.align	1
 246              		.global	HAL_RTCEx_DeactivateTimeStamp
 247              		.syntax unified
 248              		.thumb
 249              		.thumb_func
ARM GAS  C:\Users\micha\AppData\Local\Temp\ccafMmKQ.s 			page 10


 250              		.fpu fpv5-sp-d16
 252              	HAL_RTCEx_DeactivateTimeStamp:
 253              	.LFB140:
 267:Drivers/STM32F7xx_HAL_Driver/Src/stm32f7xx_hal_rtc_ex.c **** 
 268:Drivers/STM32F7xx_HAL_Driver/Src/stm32f7xx_hal_rtc_ex.c **** /**
 269:Drivers/STM32F7xx_HAL_Driver/Src/stm32f7xx_hal_rtc_ex.c ****   * @brief  Deactivates TimeStamp. 
 270:Drivers/STM32F7xx_HAL_Driver/Src/stm32f7xx_hal_rtc_ex.c ****   * @param  hrtc pointer to a RTC_HandleTypeDef structure that contains
 271:Drivers/STM32F7xx_HAL_Driver/Src/stm32f7xx_hal_rtc_ex.c ****   *                the configuration information for RTC.
 272:Drivers/STM32F7xx_HAL_Driver/Src/stm32f7xx_hal_rtc_ex.c ****   * @retval HAL status
 273:Drivers/STM32F7xx_HAL_Driver/Src/stm32f7xx_hal_rtc_ex.c ****   */
 274:Drivers/STM32F7xx_HAL_Driver/Src/stm32f7xx_hal_rtc_ex.c **** HAL_StatusTypeDef HAL_RTCEx_DeactivateTimeStamp(RTC_HandleTypeDef *hrtc)
 275:Drivers/STM32F7xx_HAL_Driver/Src/stm32f7xx_hal_rtc_ex.c **** {
 254              		.loc 1 275 0
 255              		.cfi_startproc
 256              		@ args = 0, pretend = 0, frame = 0
 257              		@ frame_needed = 0, uses_anonymous_args = 0
 258              		@ link register save eliminated.
 259              	.LVL18:
 276:Drivers/STM32F7xx_HAL_Driver/Src/stm32f7xx_hal_rtc_ex.c ****   uint32_t tmpreg = 0U;
 277:Drivers/STM32F7xx_HAL_Driver/Src/stm32f7xx_hal_rtc_ex.c ****   
 278:Drivers/STM32F7xx_HAL_Driver/Src/stm32f7xx_hal_rtc_ex.c ****   /* Process Locked */ 
 279:Drivers/STM32F7xx_HAL_Driver/Src/stm32f7xx_hal_rtc_ex.c ****   __HAL_LOCK(hrtc);
 260              		.loc 1 279 0
 261 0000 037F     		ldrb	r3, [r0, #28]	@ zero_extendqisi2
 262 0002 012B     		cmp	r3, #1
 263 0004 1ED0     		beq	.L13
 275:Drivers/STM32F7xx_HAL_Driver/Src/stm32f7xx_hal_rtc_ex.c ****   uint32_t tmpreg = 0U;
 264              		.loc 1 275 0 discriminator 2
 265 0006 10B4     		push	{r4}
 266              	.LCFI6:
 267              		.cfi_def_cfa_offset 4
 268              		.cfi_offset 4, -4
 269              		.loc 1 279 0 discriminator 2
 270 0008 0122     		movs	r2, #1
 271 000a 0277     		strb	r2, [r0, #28]
 280:Drivers/STM32F7xx_HAL_Driver/Src/stm32f7xx_hal_rtc_ex.c ****   
 281:Drivers/STM32F7xx_HAL_Driver/Src/stm32f7xx_hal_rtc_ex.c ****   hrtc->State = HAL_RTC_STATE_BUSY;
 272              		.loc 1 281 0 discriminator 2
 273 000c 0223     		movs	r3, #2
 274 000e 4377     		strb	r3, [r0, #29]
 282:Drivers/STM32F7xx_HAL_Driver/Src/stm32f7xx_hal_rtc_ex.c ****   
 283:Drivers/STM32F7xx_HAL_Driver/Src/stm32f7xx_hal_rtc_ex.c ****   /* Disable the write protection for RTC registers */
 284:Drivers/STM32F7xx_HAL_Driver/Src/stm32f7xx_hal_rtc_ex.c ****   __HAL_RTC_WRITEPROTECTION_DISABLE(hrtc);
 275              		.loc 1 284 0 discriminator 2
 276 0010 0368     		ldr	r3, [r0]
 277 0012 CA21     		movs	r1, #202
 278 0014 5962     		str	r1, [r3, #36]
 279 0016 0368     		ldr	r3, [r0]
 280 0018 5321     		movs	r1, #83
 281 001a 5962     		str	r1, [r3, #36]
 285:Drivers/STM32F7xx_HAL_Driver/Src/stm32f7xx_hal_rtc_ex.c ****   
 286:Drivers/STM32F7xx_HAL_Driver/Src/stm32f7xx_hal_rtc_ex.c ****   /* In case of interrupt mode is used, the interrupt source must disabled */ 
 287:Drivers/STM32F7xx_HAL_Driver/Src/stm32f7xx_hal_rtc_ex.c ****   __HAL_RTC_TIMESTAMP_DISABLE_IT(hrtc, RTC_IT_TS);
 282              		.loc 1 287 0 discriminator 2
 283 001c 0168     		ldr	r1, [r0]
 284 001e 8B68     		ldr	r3, [r1, #8]
 285 0020 23F40043 		bic	r3, r3, #32768
ARM GAS  C:\Users\micha\AppData\Local\Temp\ccafMmKQ.s 			page 11


 286 0024 8B60     		str	r3, [r1, #8]
 288:Drivers/STM32F7xx_HAL_Driver/Src/stm32f7xx_hal_rtc_ex.c ****   
 289:Drivers/STM32F7xx_HAL_Driver/Src/stm32f7xx_hal_rtc_ex.c ****   /* Get the RTC_CR register and clear the bits to be configured */
 290:Drivers/STM32F7xx_HAL_Driver/Src/stm32f7xx_hal_rtc_ex.c ****   tmpreg = (uint32_t)(hrtc->Instance->CR & (uint32_t)~(RTC_CR_TSEDGE | RTC_CR_TSE));
 287              		.loc 1 290 0 discriminator 2
 288 0026 0168     		ldr	r1, [r0]
 289 0028 8C68     		ldr	r4, [r1, #8]
 290 002a 074B     		ldr	r3, .L18
 291 002c 2340     		ands	r3, r3, r4
 292              	.LVL19:
 291:Drivers/STM32F7xx_HAL_Driver/Src/stm32f7xx_hal_rtc_ex.c ****   
 292:Drivers/STM32F7xx_HAL_Driver/Src/stm32f7xx_hal_rtc_ex.c ****   /* Configure the Time Stamp TSEDGE and Enable bits */
 293:Drivers/STM32F7xx_HAL_Driver/Src/stm32f7xx_hal_rtc_ex.c ****   hrtc->Instance->CR = (uint32_t)tmpreg;
 293              		.loc 1 293 0 discriminator 2
 294 002e 8B60     		str	r3, [r1, #8]
 294:Drivers/STM32F7xx_HAL_Driver/Src/stm32f7xx_hal_rtc_ex.c ****   
 295:Drivers/STM32F7xx_HAL_Driver/Src/stm32f7xx_hal_rtc_ex.c ****   /* Enable the write protection for RTC registers */
 296:Drivers/STM32F7xx_HAL_Driver/Src/stm32f7xx_hal_rtc_ex.c ****   __HAL_RTC_WRITEPROTECTION_ENABLE(hrtc);
 295              		.loc 1 296 0 discriminator 2
 296 0030 0368     		ldr	r3, [r0]
 297              	.LVL20:
 298 0032 FF21     		movs	r1, #255
 299              	.LVL21:
 300 0034 5962     		str	r1, [r3, #36]
 297:Drivers/STM32F7xx_HAL_Driver/Src/stm32f7xx_hal_rtc_ex.c ****  
 298:Drivers/STM32F7xx_HAL_Driver/Src/stm32f7xx_hal_rtc_ex.c ****   hrtc->State = HAL_RTC_STATE_READY;  
 301              		.loc 1 298 0 discriminator 2
 302 0036 4277     		strb	r2, [r0, #29]
 299:Drivers/STM32F7xx_HAL_Driver/Src/stm32f7xx_hal_rtc_ex.c ****   
 300:Drivers/STM32F7xx_HAL_Driver/Src/stm32f7xx_hal_rtc_ex.c ****   /* Process Unlocked */ 
 301:Drivers/STM32F7xx_HAL_Driver/Src/stm32f7xx_hal_rtc_ex.c ****   __HAL_UNLOCK(hrtc);
 303              		.loc 1 301 0 discriminator 2
 304 0038 0023     		movs	r3, #0
 305 003a 0377     		strb	r3, [r0, #28]
 302:Drivers/STM32F7xx_HAL_Driver/Src/stm32f7xx_hal_rtc_ex.c ****   
 303:Drivers/STM32F7xx_HAL_Driver/Src/stm32f7xx_hal_rtc_ex.c ****   return HAL_OK;
 306              		.loc 1 303 0 discriminator 2
 307 003c 1846     		mov	r0, r3
 308              	.LVL22:
 304:Drivers/STM32F7xx_HAL_Driver/Src/stm32f7xx_hal_rtc_ex.c **** }
 309              		.loc 1 304 0 discriminator 2
 310 003e 5DF8044B 		ldr	r4, [sp], #4
 311              	.LCFI7:
 312              		.cfi_restore 4
 313              		.cfi_def_cfa_offset 0
 314              	.LVL23:
 315 0042 7047     		bx	lr
 316              	.LVL24:
 317              	.L13:
 279:Drivers/STM32F7xx_HAL_Driver/Src/stm32f7xx_hal_rtc_ex.c ****   
 318              		.loc 1 279 0
 319 0044 0220     		movs	r0, #2
 320              	.LVL25:
 321              		.loc 1 304 0
 322 0046 7047     		bx	lr
 323              	.L19:
 324              		.align	2
ARM GAS  C:\Users\micha\AppData\Local\Temp\ccafMmKQ.s 			page 12


 325              	.L18:
 326 0048 F7F7FFFF 		.word	-2057
 327              		.cfi_endproc
 328              	.LFE140:
 330              		.section	.text.HAL_RTCEx_SetInternalTimeStamp,"ax",%progbits
 331              		.align	1
 332              		.global	HAL_RTCEx_SetInternalTimeStamp
 333              		.syntax unified
 334              		.thumb
 335              		.thumb_func
 336              		.fpu fpv5-sp-d16
 338              	HAL_RTCEx_SetInternalTimeStamp:
 339              	.LFB141:
 305:Drivers/STM32F7xx_HAL_Driver/Src/stm32f7xx_hal_rtc_ex.c **** 
 306:Drivers/STM32F7xx_HAL_Driver/Src/stm32f7xx_hal_rtc_ex.c **** /**
 307:Drivers/STM32F7xx_HAL_Driver/Src/stm32f7xx_hal_rtc_ex.c ****   * @brief  Sets Internal TimeStamp.
 308:Drivers/STM32F7xx_HAL_Driver/Src/stm32f7xx_hal_rtc_ex.c ****   * @note   This API must be called before enabling the internal TimeStamp feature.
 309:Drivers/STM32F7xx_HAL_Driver/Src/stm32f7xx_hal_rtc_ex.c ****   * @param  hrtc pointer to a RTC_HandleTypeDef structure that contains
 310:Drivers/STM32F7xx_HAL_Driver/Src/stm32f7xx_hal_rtc_ex.c ****   *                the configuration information for RTC.
 311:Drivers/STM32F7xx_HAL_Driver/Src/stm32f7xx_hal_rtc_ex.c ****   * @retval HAL status
 312:Drivers/STM32F7xx_HAL_Driver/Src/stm32f7xx_hal_rtc_ex.c ****   */
 313:Drivers/STM32F7xx_HAL_Driver/Src/stm32f7xx_hal_rtc_ex.c **** HAL_StatusTypeDef HAL_RTCEx_SetInternalTimeStamp(RTC_HandleTypeDef *hrtc)
 314:Drivers/STM32F7xx_HAL_Driver/Src/stm32f7xx_hal_rtc_ex.c **** {
 340              		.loc 1 314 0
 341              		.cfi_startproc
 342              		@ args = 0, pretend = 0, frame = 0
 343              		@ frame_needed = 0, uses_anonymous_args = 0
 344              		@ link register save eliminated.
 345              	.LVL26:
 315:Drivers/STM32F7xx_HAL_Driver/Src/stm32f7xx_hal_rtc_ex.c ****   /* Process Locked */
 316:Drivers/STM32F7xx_HAL_Driver/Src/stm32f7xx_hal_rtc_ex.c ****   __HAL_LOCK(hrtc);
 346              		.loc 1 316 0
 347 0000 037F     		ldrb	r3, [r0, #28]	@ zero_extendqisi2
 348 0002 012B     		cmp	r3, #1
 349 0004 16D0     		beq	.L22
 350              		.loc 1 316 0 is_stmt 0 discriminator 2
 351 0006 0122     		movs	r2, #1
 352 0008 0277     		strb	r2, [r0, #28]
 317:Drivers/STM32F7xx_HAL_Driver/Src/stm32f7xx_hal_rtc_ex.c **** 
 318:Drivers/STM32F7xx_HAL_Driver/Src/stm32f7xx_hal_rtc_ex.c ****   hrtc->State = HAL_RTC_STATE_BUSY;
 353              		.loc 1 318 0 is_stmt 1 discriminator 2
 354 000a 0223     		movs	r3, #2
 355 000c 4377     		strb	r3, [r0, #29]
 319:Drivers/STM32F7xx_HAL_Driver/Src/stm32f7xx_hal_rtc_ex.c **** 
 320:Drivers/STM32F7xx_HAL_Driver/Src/stm32f7xx_hal_rtc_ex.c ****   /* Disable the write protection for RTC registers */
 321:Drivers/STM32F7xx_HAL_Driver/Src/stm32f7xx_hal_rtc_ex.c ****   __HAL_RTC_WRITEPROTECTION_DISABLE(hrtc);
 356              		.loc 1 321 0 discriminator 2
 357 000e 0368     		ldr	r3, [r0]
 358 0010 CA21     		movs	r1, #202
 359 0012 5962     		str	r1, [r3, #36]
 360 0014 0368     		ldr	r3, [r0]
 361 0016 5321     		movs	r1, #83
 362 0018 5962     		str	r1, [r3, #36]
 322:Drivers/STM32F7xx_HAL_Driver/Src/stm32f7xx_hal_rtc_ex.c **** 
 323:Drivers/STM32F7xx_HAL_Driver/Src/stm32f7xx_hal_rtc_ex.c ****   /* Configure the internal Time Stamp Enable bits */
 324:Drivers/STM32F7xx_HAL_Driver/Src/stm32f7xx_hal_rtc_ex.c ****   __HAL_RTC_INTERNAL_TIMESTAMP_ENABLE(hrtc);
 363              		.loc 1 324 0 discriminator 2
ARM GAS  C:\Users\micha\AppData\Local\Temp\ccafMmKQ.s 			page 13


 364 001a 0168     		ldr	r1, [r0]
 365 001c 8B68     		ldr	r3, [r1, #8]
 366 001e 43F08073 		orr	r3, r3, #16777216
 367 0022 8B60     		str	r3, [r1, #8]
 325:Drivers/STM32F7xx_HAL_Driver/Src/stm32f7xx_hal_rtc_ex.c **** 
 326:Drivers/STM32F7xx_HAL_Driver/Src/stm32f7xx_hal_rtc_ex.c ****   /* Enable the write protection for RTC registers */
 327:Drivers/STM32F7xx_HAL_Driver/Src/stm32f7xx_hal_rtc_ex.c ****   __HAL_RTC_WRITEPROTECTION_ENABLE(hrtc);
 368              		.loc 1 327 0 discriminator 2
 369 0024 0368     		ldr	r3, [r0]
 370 0026 FF21     		movs	r1, #255
 371 0028 5962     		str	r1, [r3, #36]
 328:Drivers/STM32F7xx_HAL_Driver/Src/stm32f7xx_hal_rtc_ex.c **** 
 329:Drivers/STM32F7xx_HAL_Driver/Src/stm32f7xx_hal_rtc_ex.c ****   /* Change RTC state */
 330:Drivers/STM32F7xx_HAL_Driver/Src/stm32f7xx_hal_rtc_ex.c ****   hrtc->State = HAL_RTC_STATE_READY;
 372              		.loc 1 330 0 discriminator 2
 373 002a 4277     		strb	r2, [r0, #29]
 331:Drivers/STM32F7xx_HAL_Driver/Src/stm32f7xx_hal_rtc_ex.c **** 
 332:Drivers/STM32F7xx_HAL_Driver/Src/stm32f7xx_hal_rtc_ex.c ****   /* Process Unlocked */ 
 333:Drivers/STM32F7xx_HAL_Driver/Src/stm32f7xx_hal_rtc_ex.c ****   __HAL_UNLOCK(hrtc);
 374              		.loc 1 333 0 discriminator 2
 375 002c 0023     		movs	r3, #0
 376 002e 0377     		strb	r3, [r0, #28]
 334:Drivers/STM32F7xx_HAL_Driver/Src/stm32f7xx_hal_rtc_ex.c **** 
 335:Drivers/STM32F7xx_HAL_Driver/Src/stm32f7xx_hal_rtc_ex.c ****   return HAL_OK;
 377              		.loc 1 335 0 discriminator 2
 378 0030 1846     		mov	r0, r3
 379              	.LVL27:
 380 0032 7047     		bx	lr
 381              	.LVL28:
 382              	.L22:
 316:Drivers/STM32F7xx_HAL_Driver/Src/stm32f7xx_hal_rtc_ex.c **** 
 383              		.loc 1 316 0
 384 0034 0220     		movs	r0, #2
 385              	.LVL29:
 336:Drivers/STM32F7xx_HAL_Driver/Src/stm32f7xx_hal_rtc_ex.c **** }
 386              		.loc 1 336 0
 387 0036 7047     		bx	lr
 388              		.cfi_endproc
 389              	.LFE141:
 391              		.section	.text.HAL_RTCEx_DeactivateInternalTimeStamp,"ax",%progbits
 392              		.align	1
 393              		.global	HAL_RTCEx_DeactivateInternalTimeStamp
 394              		.syntax unified
 395              		.thumb
 396              		.thumb_func
 397              		.fpu fpv5-sp-d16
 399              	HAL_RTCEx_DeactivateInternalTimeStamp:
 400              	.LFB142:
 337:Drivers/STM32F7xx_HAL_Driver/Src/stm32f7xx_hal_rtc_ex.c **** 
 338:Drivers/STM32F7xx_HAL_Driver/Src/stm32f7xx_hal_rtc_ex.c **** /**
 339:Drivers/STM32F7xx_HAL_Driver/Src/stm32f7xx_hal_rtc_ex.c ****   * @brief  Deactivates internal TimeStamp.
 340:Drivers/STM32F7xx_HAL_Driver/Src/stm32f7xx_hal_rtc_ex.c ****   * @param  hrtc pointer to a RTC_HandleTypeDef structure that contains
 341:Drivers/STM32F7xx_HAL_Driver/Src/stm32f7xx_hal_rtc_ex.c ****   *                the configuration information for RTC.
 342:Drivers/STM32F7xx_HAL_Driver/Src/stm32f7xx_hal_rtc_ex.c ****   * @retval HAL status
 343:Drivers/STM32F7xx_HAL_Driver/Src/stm32f7xx_hal_rtc_ex.c ****   */
 344:Drivers/STM32F7xx_HAL_Driver/Src/stm32f7xx_hal_rtc_ex.c **** HAL_StatusTypeDef HAL_RTCEx_DeactivateInternalTimeStamp(RTC_HandleTypeDef *hrtc)
 345:Drivers/STM32F7xx_HAL_Driver/Src/stm32f7xx_hal_rtc_ex.c **** {
ARM GAS  C:\Users\micha\AppData\Local\Temp\ccafMmKQ.s 			page 14


 401              		.loc 1 345 0
 402              		.cfi_startproc
 403              		@ args = 0, pretend = 0, frame = 0
 404              		@ frame_needed = 0, uses_anonymous_args = 0
 405              		@ link register save eliminated.
 406              	.LVL30:
 346:Drivers/STM32F7xx_HAL_Driver/Src/stm32f7xx_hal_rtc_ex.c ****   /* Process Locked */
 347:Drivers/STM32F7xx_HAL_Driver/Src/stm32f7xx_hal_rtc_ex.c ****   __HAL_LOCK(hrtc);
 407              		.loc 1 347 0
 408 0000 037F     		ldrb	r3, [r0, #28]	@ zero_extendqisi2
 409 0002 012B     		cmp	r3, #1
 410 0004 16D0     		beq	.L25
 411              		.loc 1 347 0 is_stmt 0 discriminator 2
 412 0006 0122     		movs	r2, #1
 413 0008 0277     		strb	r2, [r0, #28]
 348:Drivers/STM32F7xx_HAL_Driver/Src/stm32f7xx_hal_rtc_ex.c **** 
 349:Drivers/STM32F7xx_HAL_Driver/Src/stm32f7xx_hal_rtc_ex.c ****   hrtc->State = HAL_RTC_STATE_BUSY;
 414              		.loc 1 349 0 is_stmt 1 discriminator 2
 415 000a 0223     		movs	r3, #2
 416 000c 4377     		strb	r3, [r0, #29]
 350:Drivers/STM32F7xx_HAL_Driver/Src/stm32f7xx_hal_rtc_ex.c **** 
 351:Drivers/STM32F7xx_HAL_Driver/Src/stm32f7xx_hal_rtc_ex.c ****   /* Disable the write protection for RTC registers */
 352:Drivers/STM32F7xx_HAL_Driver/Src/stm32f7xx_hal_rtc_ex.c ****   __HAL_RTC_WRITEPROTECTION_DISABLE(hrtc);
 417              		.loc 1 352 0 discriminator 2
 418 000e 0368     		ldr	r3, [r0]
 419 0010 CA21     		movs	r1, #202
 420 0012 5962     		str	r1, [r3, #36]
 421 0014 0368     		ldr	r3, [r0]
 422 0016 5321     		movs	r1, #83
 423 0018 5962     		str	r1, [r3, #36]
 353:Drivers/STM32F7xx_HAL_Driver/Src/stm32f7xx_hal_rtc_ex.c **** 
 354:Drivers/STM32F7xx_HAL_Driver/Src/stm32f7xx_hal_rtc_ex.c ****   /* Configure the internal Time Stamp Enable bits */
 355:Drivers/STM32F7xx_HAL_Driver/Src/stm32f7xx_hal_rtc_ex.c ****   __HAL_RTC_INTERNAL_TIMESTAMP_DISABLE(hrtc);
 424              		.loc 1 355 0 discriminator 2
 425 001a 0168     		ldr	r1, [r0]
 426 001c 8B68     		ldr	r3, [r1, #8]
 427 001e 23F08073 		bic	r3, r3, #16777216
 428 0022 8B60     		str	r3, [r1, #8]
 356:Drivers/STM32F7xx_HAL_Driver/Src/stm32f7xx_hal_rtc_ex.c **** 
 357:Drivers/STM32F7xx_HAL_Driver/Src/stm32f7xx_hal_rtc_ex.c ****   /* Enable the write protection for RTC registers */
 358:Drivers/STM32F7xx_HAL_Driver/Src/stm32f7xx_hal_rtc_ex.c ****   __HAL_RTC_WRITEPROTECTION_ENABLE(hrtc);
 429              		.loc 1 358 0 discriminator 2
 430 0024 0368     		ldr	r3, [r0]
 431 0026 FF21     		movs	r1, #255
 432 0028 5962     		str	r1, [r3, #36]
 359:Drivers/STM32F7xx_HAL_Driver/Src/stm32f7xx_hal_rtc_ex.c **** 
 360:Drivers/STM32F7xx_HAL_Driver/Src/stm32f7xx_hal_rtc_ex.c ****   hrtc->State = HAL_RTC_STATE_READY;
 433              		.loc 1 360 0 discriminator 2
 434 002a 4277     		strb	r2, [r0, #29]
 361:Drivers/STM32F7xx_HAL_Driver/Src/stm32f7xx_hal_rtc_ex.c **** 
 362:Drivers/STM32F7xx_HAL_Driver/Src/stm32f7xx_hal_rtc_ex.c ****   /* Process Unlocked */
 363:Drivers/STM32F7xx_HAL_Driver/Src/stm32f7xx_hal_rtc_ex.c ****   __HAL_UNLOCK(hrtc);
 435              		.loc 1 363 0 discriminator 2
 436 002c 0023     		movs	r3, #0
 437 002e 0377     		strb	r3, [r0, #28]
 364:Drivers/STM32F7xx_HAL_Driver/Src/stm32f7xx_hal_rtc_ex.c **** 
 365:Drivers/STM32F7xx_HAL_Driver/Src/stm32f7xx_hal_rtc_ex.c ****   return HAL_OK;
ARM GAS  C:\Users\micha\AppData\Local\Temp\ccafMmKQ.s 			page 15


 438              		.loc 1 365 0 discriminator 2
 439 0030 1846     		mov	r0, r3
 440              	.LVL31:
 441 0032 7047     		bx	lr
 442              	.LVL32:
 443              	.L25:
 347:Drivers/STM32F7xx_HAL_Driver/Src/stm32f7xx_hal_rtc_ex.c **** 
 444              		.loc 1 347 0
 445 0034 0220     		movs	r0, #2
 446              	.LVL33:
 366:Drivers/STM32F7xx_HAL_Driver/Src/stm32f7xx_hal_rtc_ex.c **** }
 447              		.loc 1 366 0
 448 0036 7047     		bx	lr
 449              		.cfi_endproc
 450              	.LFE142:
 452              		.section	.text.HAL_RTCEx_GetTimeStamp,"ax",%progbits
 453              		.align	1
 454              		.global	HAL_RTCEx_GetTimeStamp
 455              		.syntax unified
 456              		.thumb
 457              		.thumb_func
 458              		.fpu fpv5-sp-d16
 460              	HAL_RTCEx_GetTimeStamp:
 461              	.LFB143:
 367:Drivers/STM32F7xx_HAL_Driver/Src/stm32f7xx_hal_rtc_ex.c **** 
 368:Drivers/STM32F7xx_HAL_Driver/Src/stm32f7xx_hal_rtc_ex.c **** /**
 369:Drivers/STM32F7xx_HAL_Driver/Src/stm32f7xx_hal_rtc_ex.c ****   * @brief  Gets the RTC TimeStamp value.
 370:Drivers/STM32F7xx_HAL_Driver/Src/stm32f7xx_hal_rtc_ex.c ****   * @param  hrtc pointer to a RTC_HandleTypeDef structure that contains
 371:Drivers/STM32F7xx_HAL_Driver/Src/stm32f7xx_hal_rtc_ex.c ****   *                the configuration information for RTC.
 372:Drivers/STM32F7xx_HAL_Driver/Src/stm32f7xx_hal_rtc_ex.c ****   * @param  sTimeStamp Pointer to Time structure
 373:Drivers/STM32F7xx_HAL_Driver/Src/stm32f7xx_hal_rtc_ex.c ****   * @param  sTimeStampDate Pointer to Date structure  
 374:Drivers/STM32F7xx_HAL_Driver/Src/stm32f7xx_hal_rtc_ex.c ****   * @param  Format specifies the format of the entered parameters.
 375:Drivers/STM32F7xx_HAL_Driver/Src/stm32f7xx_hal_rtc_ex.c ****   *          This parameter can be one of the following values:
 376:Drivers/STM32F7xx_HAL_Driver/Src/stm32f7xx_hal_rtc_ex.c ****   *             FORMAT_BIN: Binary data format 
 377:Drivers/STM32F7xx_HAL_Driver/Src/stm32f7xx_hal_rtc_ex.c ****   *             FORMAT_BCD: BCD data format
 378:Drivers/STM32F7xx_HAL_Driver/Src/stm32f7xx_hal_rtc_ex.c ****   * @retval HAL status
 379:Drivers/STM32F7xx_HAL_Driver/Src/stm32f7xx_hal_rtc_ex.c ****   */
 380:Drivers/STM32F7xx_HAL_Driver/Src/stm32f7xx_hal_rtc_ex.c **** HAL_StatusTypeDef HAL_RTCEx_GetTimeStamp(RTC_HandleTypeDef *hrtc, RTC_TimeTypeDef* sTimeStamp, RTC_
 381:Drivers/STM32F7xx_HAL_Driver/Src/stm32f7xx_hal_rtc_ex.c **** {
 462              		.loc 1 381 0
 463              		.cfi_startproc
 464              		@ args = 0, pretend = 0, frame = 0
 465              		@ frame_needed = 0, uses_anonymous_args = 0
 466              	.LVL34:
 467 0000 F8B5     		push	{r3, r4, r5, r6, r7, lr}
 468              	.LCFI8:
 469              		.cfi_def_cfa_offset 24
 470              		.cfi_offset 3, -24
 471              		.cfi_offset 4, -20
 472              		.cfi_offset 5, -16
 473              		.cfi_offset 6, -12
 474              		.cfi_offset 7, -8
 475              		.cfi_offset 14, -4
 476 0002 0646     		mov	r6, r0
 477 0004 0C46     		mov	r4, r1
 478 0006 1546     		mov	r5, r2
 479              	.LVL35:
ARM GAS  C:\Users\micha\AppData\Local\Temp\ccafMmKQ.s 			page 16


 382:Drivers/STM32F7xx_HAL_Driver/Src/stm32f7xx_hal_rtc_ex.c ****   uint32_t tmptime = 0U, tmpdate = 0U;
 383:Drivers/STM32F7xx_HAL_Driver/Src/stm32f7xx_hal_rtc_ex.c **** 
 384:Drivers/STM32F7xx_HAL_Driver/Src/stm32f7xx_hal_rtc_ex.c ****   /* Check the parameters */
 385:Drivers/STM32F7xx_HAL_Driver/Src/stm32f7xx_hal_rtc_ex.c ****   assert_param(IS_RTC_FORMAT(Format));
 386:Drivers/STM32F7xx_HAL_Driver/Src/stm32f7xx_hal_rtc_ex.c **** 
 387:Drivers/STM32F7xx_HAL_Driver/Src/stm32f7xx_hal_rtc_ex.c ****   /* Get the TimeStamp time and date registers values */
 388:Drivers/STM32F7xx_HAL_Driver/Src/stm32f7xx_hal_rtc_ex.c ****   tmptime = (uint32_t)(hrtc->Instance->TSTR & RTC_TR_RESERVED_MASK);
 480              		.loc 1 388 0
 481 0008 0268     		ldr	r2, [r0]
 482              	.LVL36:
 483 000a 106B     		ldr	r0, [r2, #48]
 484              	.LVL37:
 485 000c 1E49     		ldr	r1, .L30
 486              	.LVL38:
 487 000e 0140     		ands	r1, r1, r0
 488              	.LVL39:
 389:Drivers/STM32F7xx_HAL_Driver/Src/stm32f7xx_hal_rtc_ex.c ****   tmpdate = (uint32_t)(hrtc->Instance->TSDR & RTC_DR_RESERVED_MASK);
 489              		.loc 1 389 0
 490 0010 506B     		ldr	r0, [r2, #52]
 491 0012 1E4A     		ldr	r2, .L30+4
 492 0014 0240     		ands	r2, r2, r0
 493              	.LVL40:
 390:Drivers/STM32F7xx_HAL_Driver/Src/stm32f7xx_hal_rtc_ex.c **** 
 391:Drivers/STM32F7xx_HAL_Driver/Src/stm32f7xx_hal_rtc_ex.c ****   /* Fill the Time structure fields with the read parameters */
 392:Drivers/STM32F7xx_HAL_Driver/Src/stm32f7xx_hal_rtc_ex.c ****   sTimeStamp->Hours = (uint8_t)((tmptime & (RTC_TR_HT | RTC_TR_HU)) >> 16U);
 494              		.loc 1 392 0
 495 0016 080C     		lsrs	r0, r1, #16
 496 0018 00F03F07 		and	r7, r0, #63
 497 001c 2770     		strb	r7, [r4]
 393:Drivers/STM32F7xx_HAL_Driver/Src/stm32f7xx_hal_rtc_ex.c ****   sTimeStamp->Minutes = (uint8_t)((tmptime & (RTC_TR_MNT | RTC_TR_MNU)) >> 8U);
 498              		.loc 1 393 0
 499 001e C1F30627 		ubfx	r7, r1, #8, #7
 500 0022 6770     		strb	r7, [r4, #1]
 394:Drivers/STM32F7xx_HAL_Driver/Src/stm32f7xx_hal_rtc_ex.c ****   sTimeStamp->Seconds = (uint8_t)(tmptime & (RTC_TR_ST | RTC_TR_SU));
 501              		.loc 1 394 0
 502 0024 A170     		strb	r1, [r4, #2]
 395:Drivers/STM32F7xx_HAL_Driver/Src/stm32f7xx_hal_rtc_ex.c ****   sTimeStamp->TimeFormat = (uint8_t)((tmptime & (RTC_TR_PM)) >> 16U);  
 503              		.loc 1 395 0
 504 0026 00F04000 		and	r0, r0, #64
 505 002a 2073     		strb	r0, [r4, #12]
 396:Drivers/STM32F7xx_HAL_Driver/Src/stm32f7xx_hal_rtc_ex.c ****   sTimeStamp->SubSeconds = (uint32_t) hrtc->Instance->TSSSR;
 506              		.loc 1 396 0
 507 002c 3168     		ldr	r1, [r6]
 508              	.LVL41:
 509 002e 896B     		ldr	r1, [r1, #56]
 510 0030 6160     		str	r1, [r4, #4]
 397:Drivers/STM32F7xx_HAL_Driver/Src/stm32f7xx_hal_rtc_ex.c ****   
 398:Drivers/STM32F7xx_HAL_Driver/Src/stm32f7xx_hal_rtc_ex.c ****   /* Fill the Date structure fields with the read parameters */
 399:Drivers/STM32F7xx_HAL_Driver/Src/stm32f7xx_hal_rtc_ex.c ****   sTimeStampDate->Year = 0U;
 511              		.loc 1 399 0
 512 0032 0021     		movs	r1, #0
 513 0034 E970     		strb	r1, [r5, #3]
 400:Drivers/STM32F7xx_HAL_Driver/Src/stm32f7xx_hal_rtc_ex.c ****   sTimeStampDate->Month = (uint8_t)((tmpdate & (RTC_DR_MT | RTC_DR_MU)) >> 8U);
 514              		.loc 1 400 0
 515 0036 C2F30421 		ubfx	r1, r2, #8, #5
 516 003a 6970     		strb	r1, [r5, #1]
 401:Drivers/STM32F7xx_HAL_Driver/Src/stm32f7xx_hal_rtc_ex.c ****   sTimeStampDate->Date = (uint8_t)(tmpdate & (RTC_DR_DT | RTC_DR_DU));
ARM GAS  C:\Users\micha\AppData\Local\Temp\ccafMmKQ.s 			page 17


 517              		.loc 1 401 0
 518 003c AA70     		strb	r2, [r5, #2]
 402:Drivers/STM32F7xx_HAL_Driver/Src/stm32f7xx_hal_rtc_ex.c ****   sTimeStampDate->WeekDay = (uint8_t)((tmpdate & (RTC_DR_WDU)) >> 13U);
 519              		.loc 1 402 0
 520 003e C2F34232 		ubfx	r2, r2, #13, #3
 521              	.LVL42:
 522 0042 2A70     		strb	r2, [r5]
 403:Drivers/STM32F7xx_HAL_Driver/Src/stm32f7xx_hal_rtc_ex.c **** 
 404:Drivers/STM32F7xx_HAL_Driver/Src/stm32f7xx_hal_rtc_ex.c ****   /* Check the input parameters format */
 405:Drivers/STM32F7xx_HAL_Driver/Src/stm32f7xx_hal_rtc_ex.c ****   if(Format == RTC_FORMAT_BIN)
 523              		.loc 1 405 0
 524 0044 3BB1     		cbz	r3, .L29
 525              	.LVL43:
 526              	.L27:
 406:Drivers/STM32F7xx_HAL_Driver/Src/stm32f7xx_hal_rtc_ex.c ****   {
 407:Drivers/STM32F7xx_HAL_Driver/Src/stm32f7xx_hal_rtc_ex.c ****     /* Convert the TimeStamp structure parameters to Binary format */
 408:Drivers/STM32F7xx_HAL_Driver/Src/stm32f7xx_hal_rtc_ex.c ****     sTimeStamp->Hours = (uint8_t)RTC_Bcd2ToByte(sTimeStamp->Hours);
 409:Drivers/STM32F7xx_HAL_Driver/Src/stm32f7xx_hal_rtc_ex.c ****     sTimeStamp->Minutes = (uint8_t)RTC_Bcd2ToByte(sTimeStamp->Minutes);
 410:Drivers/STM32F7xx_HAL_Driver/Src/stm32f7xx_hal_rtc_ex.c ****     sTimeStamp->Seconds = (uint8_t)RTC_Bcd2ToByte(sTimeStamp->Seconds);
 411:Drivers/STM32F7xx_HAL_Driver/Src/stm32f7xx_hal_rtc_ex.c ****     
 412:Drivers/STM32F7xx_HAL_Driver/Src/stm32f7xx_hal_rtc_ex.c ****     /* Convert the DateTimeStamp structure parameters to Binary format */
 413:Drivers/STM32F7xx_HAL_Driver/Src/stm32f7xx_hal_rtc_ex.c ****     sTimeStampDate->Month = (uint8_t)RTC_Bcd2ToByte(sTimeStampDate->Month);
 414:Drivers/STM32F7xx_HAL_Driver/Src/stm32f7xx_hal_rtc_ex.c ****     sTimeStampDate->Date = (uint8_t)RTC_Bcd2ToByte(sTimeStampDate->Date);
 415:Drivers/STM32F7xx_HAL_Driver/Src/stm32f7xx_hal_rtc_ex.c ****     sTimeStampDate->WeekDay = (uint8_t)RTC_Bcd2ToByte(sTimeStampDate->WeekDay);
 416:Drivers/STM32F7xx_HAL_Driver/Src/stm32f7xx_hal_rtc_ex.c ****   }
 417:Drivers/STM32F7xx_HAL_Driver/Src/stm32f7xx_hal_rtc_ex.c ****   
 418:Drivers/STM32F7xx_HAL_Driver/Src/stm32f7xx_hal_rtc_ex.c ****   /* Clear the TIMESTAMP Flag */
 419:Drivers/STM32F7xx_HAL_Driver/Src/stm32f7xx_hal_rtc_ex.c ****   __HAL_RTC_TIMESTAMP_CLEAR_FLAG(hrtc, RTC_FLAG_TSF);
 527              		.loc 1 419 0
 528 0046 3268     		ldr	r2, [r6]
 529 0048 D368     		ldr	r3, [r2, #12]
 530 004a DBB2     		uxtb	r3, r3
 531 004c 63F40863 		orn	r3, r3, #2176
 532 0050 D360     		str	r3, [r2, #12]
 420:Drivers/STM32F7xx_HAL_Driver/Src/stm32f7xx_hal_rtc_ex.c ****     
 421:Drivers/STM32F7xx_HAL_Driver/Src/stm32f7xx_hal_rtc_ex.c ****   return HAL_OK;
 422:Drivers/STM32F7xx_HAL_Driver/Src/stm32f7xx_hal_rtc_ex.c **** }
 533              		.loc 1 422 0
 534 0052 0020     		movs	r0, #0
 535 0054 F8BD     		pop	{r3, r4, r5, r6, r7, pc}
 536              	.LVL44:
 537              	.L29:
 408:Drivers/STM32F7xx_HAL_Driver/Src/stm32f7xx_hal_rtc_ex.c ****     sTimeStamp->Minutes = (uint8_t)RTC_Bcd2ToByte(sTimeStamp->Minutes);
 538              		.loc 1 408 0
 539 0056 2078     		ldrb	r0, [r4]	@ zero_extendqisi2
 540 0058 FFF7FEFF 		bl	RTC_Bcd2ToByte
 541              	.LVL45:
 542 005c 2070     		strb	r0, [r4]
 409:Drivers/STM32F7xx_HAL_Driver/Src/stm32f7xx_hal_rtc_ex.c ****     sTimeStamp->Seconds = (uint8_t)RTC_Bcd2ToByte(sTimeStamp->Seconds);
 543              		.loc 1 409 0
 544 005e 6078     		ldrb	r0, [r4, #1]	@ zero_extendqisi2
 545 0060 FFF7FEFF 		bl	RTC_Bcd2ToByte
 546              	.LVL46:
 547 0064 6070     		strb	r0, [r4, #1]
 410:Drivers/STM32F7xx_HAL_Driver/Src/stm32f7xx_hal_rtc_ex.c ****     
 548              		.loc 1 410 0
 549 0066 A078     		ldrb	r0, [r4, #2]	@ zero_extendqisi2
ARM GAS  C:\Users\micha\AppData\Local\Temp\ccafMmKQ.s 			page 18


 550 0068 FFF7FEFF 		bl	RTC_Bcd2ToByte
 551              	.LVL47:
 552 006c A070     		strb	r0, [r4, #2]
 413:Drivers/STM32F7xx_HAL_Driver/Src/stm32f7xx_hal_rtc_ex.c ****     sTimeStampDate->Date = (uint8_t)RTC_Bcd2ToByte(sTimeStampDate->Date);
 553              		.loc 1 413 0
 554 006e 6878     		ldrb	r0, [r5, #1]	@ zero_extendqisi2
 555 0070 FFF7FEFF 		bl	RTC_Bcd2ToByte
 556              	.LVL48:
 557 0074 6870     		strb	r0, [r5, #1]
 414:Drivers/STM32F7xx_HAL_Driver/Src/stm32f7xx_hal_rtc_ex.c ****     sTimeStampDate->WeekDay = (uint8_t)RTC_Bcd2ToByte(sTimeStampDate->WeekDay);
 558              		.loc 1 414 0
 559 0076 A878     		ldrb	r0, [r5, #2]	@ zero_extendqisi2
 560 0078 FFF7FEFF 		bl	RTC_Bcd2ToByte
 561              	.LVL49:
 562 007c A870     		strb	r0, [r5, #2]
 415:Drivers/STM32F7xx_HAL_Driver/Src/stm32f7xx_hal_rtc_ex.c ****   }
 563              		.loc 1 415 0
 564 007e 2878     		ldrb	r0, [r5]	@ zero_extendqisi2
 565 0080 FFF7FEFF 		bl	RTC_Bcd2ToByte
 566              	.LVL50:
 567 0084 2870     		strb	r0, [r5]
 568 0086 DEE7     		b	.L27
 569              	.L31:
 570              		.align	2
 571              	.L30:
 572 0088 7F7F7F00 		.word	8355711
 573 008c 3FFFFF00 		.word	16777023
 574              		.cfi_endproc
 575              	.LFE143:
 577              		.section	.text.HAL_RTCEx_SetTamper,"ax",%progbits
 578              		.align	1
 579              		.global	HAL_RTCEx_SetTamper
 580              		.syntax unified
 581              		.thumb
 582              		.thumb_func
 583              		.fpu fpv5-sp-d16
 585              	HAL_RTCEx_SetTamper:
 586              	.LFB144:
 423:Drivers/STM32F7xx_HAL_Driver/Src/stm32f7xx_hal_rtc_ex.c **** 
 424:Drivers/STM32F7xx_HAL_Driver/Src/stm32f7xx_hal_rtc_ex.c **** /**
 425:Drivers/STM32F7xx_HAL_Driver/Src/stm32f7xx_hal_rtc_ex.c ****   * @brief  Sets Tamper
 426:Drivers/STM32F7xx_HAL_Driver/Src/stm32f7xx_hal_rtc_ex.c ****   * @note   By calling this API we disable the tamper interrupt for all tampers. 
 427:Drivers/STM32F7xx_HAL_Driver/Src/stm32f7xx_hal_rtc_ex.c ****   * @param  hrtc pointer to a RTC_HandleTypeDef structure that contains
 428:Drivers/STM32F7xx_HAL_Driver/Src/stm32f7xx_hal_rtc_ex.c ****   *                the configuration information for RTC.
 429:Drivers/STM32F7xx_HAL_Driver/Src/stm32f7xx_hal_rtc_ex.c ****   * @param  sTamper Pointer to Tamper Structure.
 430:Drivers/STM32F7xx_HAL_Driver/Src/stm32f7xx_hal_rtc_ex.c ****   * @retval HAL status
 431:Drivers/STM32F7xx_HAL_Driver/Src/stm32f7xx_hal_rtc_ex.c ****   */
 432:Drivers/STM32F7xx_HAL_Driver/Src/stm32f7xx_hal_rtc_ex.c **** HAL_StatusTypeDef HAL_RTCEx_SetTamper(RTC_HandleTypeDef *hrtc, RTC_TamperTypeDef* sTamper)
 433:Drivers/STM32F7xx_HAL_Driver/Src/stm32f7xx_hal_rtc_ex.c **** {
 587              		.loc 1 433 0
 588              		.cfi_startproc
 589              		@ args = 0, pretend = 0, frame = 0
 590              		@ frame_needed = 0, uses_anonymous_args = 0
 591              		@ link register save eliminated.
 592              	.LVL51:
 434:Drivers/STM32F7xx_HAL_Driver/Src/stm32f7xx_hal_rtc_ex.c ****   uint32_t tmpreg = 0U;
 435:Drivers/STM32F7xx_HAL_Driver/Src/stm32f7xx_hal_rtc_ex.c ****   
ARM GAS  C:\Users\micha\AppData\Local\Temp\ccafMmKQ.s 			page 19


 436:Drivers/STM32F7xx_HAL_Driver/Src/stm32f7xx_hal_rtc_ex.c ****   /* Check the parameters */
 437:Drivers/STM32F7xx_HAL_Driver/Src/stm32f7xx_hal_rtc_ex.c ****   assert_param(IS_RTC_TAMPER(sTamper->Tamper)); 
 438:Drivers/STM32F7xx_HAL_Driver/Src/stm32f7xx_hal_rtc_ex.c ****   assert_param(IS_RTC_TAMPER_TRIGGER(sTamper->Trigger));
 439:Drivers/STM32F7xx_HAL_Driver/Src/stm32f7xx_hal_rtc_ex.c ****   assert_param(IS_RTC_TAMPER_ERASE_MODE(sTamper->NoErase));
 440:Drivers/STM32F7xx_HAL_Driver/Src/stm32f7xx_hal_rtc_ex.c ****   assert_param(IS_RTC_TAMPER_MASKFLAG_STATE(sTamper->MaskFlag));
 441:Drivers/STM32F7xx_HAL_Driver/Src/stm32f7xx_hal_rtc_ex.c ****   assert_param(IS_RTC_TAMPER_FILTER(sTamper->Filter));
 442:Drivers/STM32F7xx_HAL_Driver/Src/stm32f7xx_hal_rtc_ex.c ****   assert_param(IS_RTC_TAMPER_SAMPLING_FREQ(sTamper->SamplingFrequency));         
 443:Drivers/STM32F7xx_HAL_Driver/Src/stm32f7xx_hal_rtc_ex.c ****   assert_param(IS_RTC_TAMPER_PRECHARGE_DURATION(sTamper->PrechargeDuration));
 444:Drivers/STM32F7xx_HAL_Driver/Src/stm32f7xx_hal_rtc_ex.c ****   assert_param(IS_RTC_TAMPER_PULLUP_STATE(sTamper->TamperPullUp));
 445:Drivers/STM32F7xx_HAL_Driver/Src/stm32f7xx_hal_rtc_ex.c ****   assert_param(IS_RTC_TAMPER_TIMESTAMPONTAMPER_DETECTION(sTamper->TimeStampOnTamperDetection));
 446:Drivers/STM32F7xx_HAL_Driver/Src/stm32f7xx_hal_rtc_ex.c ****  
 447:Drivers/STM32F7xx_HAL_Driver/Src/stm32f7xx_hal_rtc_ex.c ****   /* Process Locked */ 
 448:Drivers/STM32F7xx_HAL_Driver/Src/stm32f7xx_hal_rtc_ex.c ****   __HAL_LOCK(hrtc);
 593              		.loc 1 448 0
 594 0000 037F     		ldrb	r3, [r0, #28]	@ zero_extendqisi2
 595 0002 012B     		cmp	r3, #1
 596 0004 60D0     		beq	.L41
 433:Drivers/STM32F7xx_HAL_Driver/Src/stm32f7xx_hal_rtc_ex.c ****   uint32_t tmpreg = 0U;
 597              		.loc 1 433 0 discriminator 2
 598 0006 30B4     		push	{r4, r5}
 599              	.LCFI9:
 600              		.cfi_def_cfa_offset 8
 601              		.cfi_offset 4, -8
 602              		.cfi_offset 5, -4
 603              		.loc 1 448 0 discriminator 2
 604 0008 0123     		movs	r3, #1
 605 000a 0377     		strb	r3, [r0, #28]
 449:Drivers/STM32F7xx_HAL_Driver/Src/stm32f7xx_hal_rtc_ex.c ****     
 450:Drivers/STM32F7xx_HAL_Driver/Src/stm32f7xx_hal_rtc_ex.c ****   hrtc->State = HAL_RTC_STATE_BUSY;
 606              		.loc 1 450 0 discriminator 2
 607 000c 0223     		movs	r3, #2
 608 000e 4377     		strb	r3, [r0, #29]
 451:Drivers/STM32F7xx_HAL_Driver/Src/stm32f7xx_hal_rtc_ex.c **** 
 452:Drivers/STM32F7xx_HAL_Driver/Src/stm32f7xx_hal_rtc_ex.c ****   if(sTamper->Trigger != RTC_TAMPERTRIGGER_RISINGEDGE)
 609              		.loc 1 452 0 discriminator 2
 610 0010 8B68     		ldr	r3, [r1, #8]
 611 0012 13B1     		cbz	r3, .L34
 453:Drivers/STM32F7xx_HAL_Driver/Src/stm32f7xx_hal_rtc_ex.c ****   { 
 454:Drivers/STM32F7xx_HAL_Driver/Src/stm32f7xx_hal_rtc_ex.c ****     sTamper->Trigger = (uint32_t)(sTamper->Tamper << 1U); 
 612              		.loc 1 454 0
 613 0014 0B68     		ldr	r3, [r1]
 614 0016 5B00     		lsls	r3, r3, #1
 615 0018 8B60     		str	r3, [r1, #8]
 616              	.L34:
 455:Drivers/STM32F7xx_HAL_Driver/Src/stm32f7xx_hal_rtc_ex.c ****   } 
 456:Drivers/STM32F7xx_HAL_Driver/Src/stm32f7xx_hal_rtc_ex.c ****   
 457:Drivers/STM32F7xx_HAL_Driver/Src/stm32f7xx_hal_rtc_ex.c ****   if(sTamper->NoErase != RTC_TAMPER_ERASE_BACKUP_ENABLE)
 617              		.loc 1 457 0
 618 001a CB68     		ldr	r3, [r1, #12]
 619 001c B3B1     		cbz	r3, .L35
 458:Drivers/STM32F7xx_HAL_Driver/Src/stm32f7xx_hal_rtc_ex.c ****   { 
 459:Drivers/STM32F7xx_HAL_Driver/Src/stm32f7xx_hal_rtc_ex.c ****     sTamper->NoErase = 0;
 620              		.loc 1 459 0
 621 001e 0023     		movs	r3, #0
 622 0020 CB60     		str	r3, [r1, #12]
 460:Drivers/STM32F7xx_HAL_Driver/Src/stm32f7xx_hal_rtc_ex.c ****     if((sTamper->Tamper & RTC_TAMPER_1) != 0U)
 623              		.loc 1 460 0
ARM GAS  C:\Users\micha\AppData\Local\Temp\ccafMmKQ.s 			page 20


 624 0022 0B68     		ldr	r3, [r1]
 625 0024 13F0010F 		tst	r3, #1
 626 0028 02D0     		beq	.L36
 461:Drivers/STM32F7xx_HAL_Driver/Src/stm32f7xx_hal_rtc_ex.c ****     {
 462:Drivers/STM32F7xx_HAL_Driver/Src/stm32f7xx_hal_rtc_ex.c ****       sTamper->NoErase |= RTC_TAMPCR_TAMP1NOERASE;
 627              		.loc 1 462 0
 628 002a 4FF40032 		mov	r2, #131072
 629 002e CA60     		str	r2, [r1, #12]
 630              	.L36:
 463:Drivers/STM32F7xx_HAL_Driver/Src/stm32f7xx_hal_rtc_ex.c ****     }
 464:Drivers/STM32F7xx_HAL_Driver/Src/stm32f7xx_hal_rtc_ex.c ****     if((sTamper->Tamper & RTC_TAMPER_2) != 0U)
 631              		.loc 1 464 0
 632 0030 13F0080F 		tst	r3, #8
 633 0034 03D0     		beq	.L37
 465:Drivers/STM32F7xx_HAL_Driver/Src/stm32f7xx_hal_rtc_ex.c ****     {
 466:Drivers/STM32F7xx_HAL_Driver/Src/stm32f7xx_hal_rtc_ex.c ****       sTamper->NoErase |= RTC_TAMPCR_TAMP2NOERASE;
 634              		.loc 1 466 0
 635 0036 CA68     		ldr	r2, [r1, #12]
 636 0038 42F48012 		orr	r2, r2, #1048576
 637 003c CA60     		str	r2, [r1, #12]
 638              	.L37:
 467:Drivers/STM32F7xx_HAL_Driver/Src/stm32f7xx_hal_rtc_ex.c ****     }
 468:Drivers/STM32F7xx_HAL_Driver/Src/stm32f7xx_hal_rtc_ex.c ****     if((sTamper->Tamper & RTC_TAMPER_3) != 0U)
 639              		.loc 1 468 0
 640 003e 13F0200F 		tst	r3, #32
 641 0042 03D0     		beq	.L35
 469:Drivers/STM32F7xx_HAL_Driver/Src/stm32f7xx_hal_rtc_ex.c ****     {
 470:Drivers/STM32F7xx_HAL_Driver/Src/stm32f7xx_hal_rtc_ex.c ****       sTamper->NoErase |= RTC_TAMPCR_TAMP3NOERASE;
 642              		.loc 1 470 0
 643 0044 CB68     		ldr	r3, [r1, #12]
 644 0046 43F40003 		orr	r3, r3, #8388608
 645 004a CB60     		str	r3, [r1, #12]
 646              	.L35:
 471:Drivers/STM32F7xx_HAL_Driver/Src/stm32f7xx_hal_rtc_ex.c ****     }
 472:Drivers/STM32F7xx_HAL_Driver/Src/stm32f7xx_hal_rtc_ex.c ****   }
 473:Drivers/STM32F7xx_HAL_Driver/Src/stm32f7xx_hal_rtc_ex.c **** 
 474:Drivers/STM32F7xx_HAL_Driver/Src/stm32f7xx_hal_rtc_ex.c ****   if(sTamper->MaskFlag != RTC_TAMPERMASK_FLAG_DISABLE)
 647              		.loc 1 474 0
 648 004c 0B69     		ldr	r3, [r1, #16]
 649 004e B3B1     		cbz	r3, .L38
 475:Drivers/STM32F7xx_HAL_Driver/Src/stm32f7xx_hal_rtc_ex.c ****   {
 476:Drivers/STM32F7xx_HAL_Driver/Src/stm32f7xx_hal_rtc_ex.c ****     sTamper->MaskFlag = 0;
 650              		.loc 1 476 0
 651 0050 0023     		movs	r3, #0
 652 0052 0B61     		str	r3, [r1, #16]
 477:Drivers/STM32F7xx_HAL_Driver/Src/stm32f7xx_hal_rtc_ex.c ****     if((sTamper->Tamper & RTC_TAMPER_1) != 0U)
 653              		.loc 1 477 0
 654 0054 0B68     		ldr	r3, [r1]
 655 0056 13F0010F 		tst	r3, #1
 656 005a 02D0     		beq	.L39
 478:Drivers/STM32F7xx_HAL_Driver/Src/stm32f7xx_hal_rtc_ex.c ****     {
 479:Drivers/STM32F7xx_HAL_Driver/Src/stm32f7xx_hal_rtc_ex.c ****       sTamper->MaskFlag |= RTC_TAMPCR_TAMP1MF;
 657              		.loc 1 479 0
 658 005c 4FF48022 		mov	r2, #262144
 659 0060 0A61     		str	r2, [r1, #16]
 660              	.L39:
 480:Drivers/STM32F7xx_HAL_Driver/Src/stm32f7xx_hal_rtc_ex.c ****     }
ARM GAS  C:\Users\micha\AppData\Local\Temp\ccafMmKQ.s 			page 21


 481:Drivers/STM32F7xx_HAL_Driver/Src/stm32f7xx_hal_rtc_ex.c ****     if((sTamper->Tamper & RTC_TAMPER_2) != 0U)
 661              		.loc 1 481 0
 662 0062 13F0080F 		tst	r3, #8
 663 0066 03D0     		beq	.L40
 482:Drivers/STM32F7xx_HAL_Driver/Src/stm32f7xx_hal_rtc_ex.c ****     {
 483:Drivers/STM32F7xx_HAL_Driver/Src/stm32f7xx_hal_rtc_ex.c ****       sTamper->MaskFlag |= RTC_TAMPCR_TAMP2MF;
 664              		.loc 1 483 0
 665 0068 0A69     		ldr	r2, [r1, #16]
 666 006a 42F40012 		orr	r2, r2, #2097152
 667 006e 0A61     		str	r2, [r1, #16]
 668              	.L40:
 484:Drivers/STM32F7xx_HAL_Driver/Src/stm32f7xx_hal_rtc_ex.c ****     }
 485:Drivers/STM32F7xx_HAL_Driver/Src/stm32f7xx_hal_rtc_ex.c ****     if((sTamper->Tamper & RTC_TAMPER_3) != 0U)
 669              		.loc 1 485 0
 670 0070 13F0200F 		tst	r3, #32
 671 0074 03D0     		beq	.L38
 486:Drivers/STM32F7xx_HAL_Driver/Src/stm32f7xx_hal_rtc_ex.c ****     {
 487:Drivers/STM32F7xx_HAL_Driver/Src/stm32f7xx_hal_rtc_ex.c ****       sTamper->MaskFlag |= RTC_TAMPCR_TAMP3MF;
 672              		.loc 1 487 0
 673 0076 0B69     		ldr	r3, [r1, #16]
 674 0078 43F08073 		orr	r3, r3, #16777216
 675 007c 0B61     		str	r3, [r1, #16]
 676              	.L38:
 488:Drivers/STM32F7xx_HAL_Driver/Src/stm32f7xx_hal_rtc_ex.c ****     }
 489:Drivers/STM32F7xx_HAL_Driver/Src/stm32f7xx_hal_rtc_ex.c ****   }
 490:Drivers/STM32F7xx_HAL_Driver/Src/stm32f7xx_hal_rtc_ex.c ****   
 491:Drivers/STM32F7xx_HAL_Driver/Src/stm32f7xx_hal_rtc_ex.c ****   tmpreg = ((uint32_t)sTamper->Tamper | (uint32_t)sTamper->Trigger  | (uint32_t)sTamper->NoErase |\
 677              		.loc 1 491 0
 678 007e 0A68     		ldr	r2, [r1]
 679 0080 8B68     		ldr	r3, [r1, #8]
 680 0082 1343     		orrs	r3, r3, r2
 681 0084 CC68     		ldr	r4, [r1, #12]
 682 0086 2343     		orrs	r3, r3, r4
 492:Drivers/STM32F7xx_HAL_Driver/Src/stm32f7xx_hal_rtc_ex.c ****             (uint32_t)sTamper->MaskFlag | (uint32_t)sTamper->Filter | (uint32_t)sTamper->SamplingFr
 683              		.loc 1 492 0
 684 0088 0C69     		ldr	r4, [r1, #16]
 491:Drivers/STM32F7xx_HAL_Driver/Src/stm32f7xx_hal_rtc_ex.c ****             (uint32_t)sTamper->MaskFlag | (uint32_t)sTamper->Filter | (uint32_t)sTamper->SamplingFr
 685              		.loc 1 491 0
 686 008a 2343     		orrs	r3, r3, r4
 687              		.loc 1 492 0
 688 008c 4C69     		ldr	r4, [r1, #20]
 689 008e 2343     		orrs	r3, r3, r4
 690 0090 8C69     		ldr	r4, [r1, #24]
 691 0092 2343     		orrs	r3, r3, r4
 493:Drivers/STM32F7xx_HAL_Driver/Src/stm32f7xx_hal_rtc_ex.c ****             (uint32_t)sTamper->PrechargeDuration | (uint32_t)sTamper->TamperPullUp | sTamper->TimeS
 692              		.loc 1 493 0
 693 0094 CC69     		ldr	r4, [r1, #28]
 492:Drivers/STM32F7xx_HAL_Driver/Src/stm32f7xx_hal_rtc_ex.c ****             (uint32_t)sTamper->MaskFlag | (uint32_t)sTamper->Filter | (uint32_t)sTamper->SamplingFr
 694              		.loc 1 492 0
 695 0096 2343     		orrs	r3, r3, r4
 696              		.loc 1 493 0
 697 0098 0C6A     		ldr	r4, [r1, #32]
 698 009a 2343     		orrs	r3, r3, r4
 699 009c 496A     		ldr	r1, [r1, #36]
 700              	.LVL52:
 491:Drivers/STM32F7xx_HAL_Driver/Src/stm32f7xx_hal_rtc_ex.c ****             (uint32_t)sTamper->MaskFlag | (uint32_t)sTamper->Filter | (uint32_t)sTamper->SamplingFr
 701              		.loc 1 491 0
ARM GAS  C:\Users\micha\AppData\Local\Temp\ccafMmKQ.s 			page 22


 702 009e 0B43     		orrs	r3, r3, r1
 703              	.LVL53:
 494:Drivers/STM32F7xx_HAL_Driver/Src/stm32f7xx_hal_rtc_ex.c **** 
 495:Drivers/STM32F7xx_HAL_Driver/Src/stm32f7xx_hal_rtc_ex.c ****   hrtc->Instance->TAMPCR &= (uint32_t)~((uint32_t)sTamper->Tamper | (uint32_t)(sTamper->Tamper << 1
 704              		.loc 1 495 0
 705 00a0 0568     		ldr	r5, [r0]
 706 00a2 296C     		ldr	r1, [r5, #64]
 707 00a4 42EA4202 		orr	r2, r2, r2, lsl #1
 496:Drivers/STM32F7xx_HAL_Driver/Src/stm32f7xx_hal_rtc_ex.c ****                                        (uint32_t)RTC_TAMPCR_TAMPFREQ | (uint32_t)RTC_TAMPCR_TAMPFLT
 497:Drivers/STM32F7xx_HAL_Driver/Src/stm32f7xx_hal_rtc_ex.c ****                                        (uint32_t)RTC_TAMPCR_TAMPPUDIS | (uint32_t)RTC_TAMPCR_TAMPIE
 498:Drivers/STM32F7xx_HAL_Driver/Src/stm32f7xx_hal_rtc_ex.c ****                                        (uint32_t)RTC_TAMPCR_TAMP2IE | (uint32_t)RTC_TAMPCR_TAMP3IE 
 499:Drivers/STM32F7xx_HAL_Driver/Src/stm32f7xx_hal_rtc_ex.c ****                                        (uint32_t)RTC_TAMPCR_TAMP2NOERASE | (uint32_t)RTC_TAMPCR_TAM
 500:Drivers/STM32F7xx_HAL_Driver/Src/stm32f7xx_hal_rtc_ex.c ****                                        (uint32_t)RTC_TAMPCR_TAMP2MF | (uint32_t)RTC_TAMPCR_TAMP3MF)
 708              		.loc 1 500 0
 709 00a8 084C     		ldr	r4, .L46
 710 00aa 1443     		orrs	r4, r4, r2
 495:Drivers/STM32F7xx_HAL_Driver/Src/stm32f7xx_hal_rtc_ex.c ****                                        (uint32_t)RTC_TAMPCR_TAMPFREQ | (uint32_t)RTC_TAMPCR_TAMPFLT
 711              		.loc 1 495 0
 712 00ac 21EA0401 		bic	r1, r1, r4
 713 00b0 2964     		str	r1, [r5, #64]
 501:Drivers/STM32F7xx_HAL_Driver/Src/stm32f7xx_hal_rtc_ex.c **** 
 502:Drivers/STM32F7xx_HAL_Driver/Src/stm32f7xx_hal_rtc_ex.c ****   hrtc->Instance->TAMPCR |= tmpreg;      
 714              		.loc 1 502 0
 715 00b2 0168     		ldr	r1, [r0]
 716 00b4 0A6C     		ldr	r2, [r1, #64]
 717 00b6 1343     		orrs	r3, r3, r2
 718              	.LVL54:
 719 00b8 0B64     		str	r3, [r1, #64]
 503:Drivers/STM32F7xx_HAL_Driver/Src/stm32f7xx_hal_rtc_ex.c ****       
 504:Drivers/STM32F7xx_HAL_Driver/Src/stm32f7xx_hal_rtc_ex.c ****   hrtc->State = HAL_RTC_STATE_READY; 
 720              		.loc 1 504 0
 721 00ba 0123     		movs	r3, #1
 722 00bc 4377     		strb	r3, [r0, #29]
 505:Drivers/STM32F7xx_HAL_Driver/Src/stm32f7xx_hal_rtc_ex.c **** 
 506:Drivers/STM32F7xx_HAL_Driver/Src/stm32f7xx_hal_rtc_ex.c ****   /* Process Unlocked */ 
 507:Drivers/STM32F7xx_HAL_Driver/Src/stm32f7xx_hal_rtc_ex.c ****   __HAL_UNLOCK(hrtc);
 723              		.loc 1 507 0
 724 00be 0023     		movs	r3, #0
 725 00c0 0377     		strb	r3, [r0, #28]
 508:Drivers/STM32F7xx_HAL_Driver/Src/stm32f7xx_hal_rtc_ex.c ****     
 509:Drivers/STM32F7xx_HAL_Driver/Src/stm32f7xx_hal_rtc_ex.c ****   return HAL_OK;
 726              		.loc 1 509 0
 727 00c2 1846     		mov	r0, r3
 728              	.LVL55:
 510:Drivers/STM32F7xx_HAL_Driver/Src/stm32f7xx_hal_rtc_ex.c **** }
 729              		.loc 1 510 0
 730 00c4 30BC     		pop	{r4, r5}
 731              	.LCFI10:
 732              		.cfi_restore 5
 733              		.cfi_restore 4
 734              		.cfi_def_cfa_offset 0
 735 00c6 7047     		bx	lr
 736              	.LVL56:
 737              	.L41:
 448:Drivers/STM32F7xx_HAL_Driver/Src/stm32f7xx_hal_rtc_ex.c ****     
 738              		.loc 1 448 0
 739 00c8 0220     		movs	r0, #2
ARM GAS  C:\Users\micha\AppData\Local\Temp\ccafMmKQ.s 			page 23


 740              	.LVL57:
 741              		.loc 1 510 0
 742 00ca 7047     		bx	lr
 743              	.L47:
 744              		.align	2
 745              	.L46:
 746 00cc 84FFFF01 		.word	33554308
 747              		.cfi_endproc
 748              	.LFE144:
 750              		.section	.text.HAL_RTCEx_SetTamper_IT,"ax",%progbits
 751              		.align	1
 752              		.global	HAL_RTCEx_SetTamper_IT
 753              		.syntax unified
 754              		.thumb
 755              		.thumb_func
 756              		.fpu fpv5-sp-d16
 758              	HAL_RTCEx_SetTamper_IT:
 759              	.LFB145:
 511:Drivers/STM32F7xx_HAL_Driver/Src/stm32f7xx_hal_rtc_ex.c **** 
 512:Drivers/STM32F7xx_HAL_Driver/Src/stm32f7xx_hal_rtc_ex.c **** /**
 513:Drivers/STM32F7xx_HAL_Driver/Src/stm32f7xx_hal_rtc_ex.c ****   * @brief  Sets Tamper with interrupt.
 514:Drivers/STM32F7xx_HAL_Driver/Src/stm32f7xx_hal_rtc_ex.c ****   * @note   By calling this API we force the tamper interrupt for all tampers.
 515:Drivers/STM32F7xx_HAL_Driver/Src/stm32f7xx_hal_rtc_ex.c ****   * @param  hrtc pointer to a RTC_HandleTypeDef structure that contains
 516:Drivers/STM32F7xx_HAL_Driver/Src/stm32f7xx_hal_rtc_ex.c ****   *                the configuration information for RTC.
 517:Drivers/STM32F7xx_HAL_Driver/Src/stm32f7xx_hal_rtc_ex.c ****   * @param  sTamper Pointer to RTC Tamper.
 518:Drivers/STM32F7xx_HAL_Driver/Src/stm32f7xx_hal_rtc_ex.c ****   * @retval HAL status
 519:Drivers/STM32F7xx_HAL_Driver/Src/stm32f7xx_hal_rtc_ex.c ****   */
 520:Drivers/STM32F7xx_HAL_Driver/Src/stm32f7xx_hal_rtc_ex.c **** HAL_StatusTypeDef HAL_RTCEx_SetTamper_IT(RTC_HandleTypeDef *hrtc, RTC_TamperTypeDef* sTamper)
 521:Drivers/STM32F7xx_HAL_Driver/Src/stm32f7xx_hal_rtc_ex.c **** {
 760              		.loc 1 521 0
 761              		.cfi_startproc
 762              		@ args = 0, pretend = 0, frame = 0
 763              		@ frame_needed = 0, uses_anonymous_args = 0
 764              		@ link register save eliminated.
 765              	.LVL58:
 522:Drivers/STM32F7xx_HAL_Driver/Src/stm32f7xx_hal_rtc_ex.c ****   uint32_t tmpreg = 0;
 523:Drivers/STM32F7xx_HAL_Driver/Src/stm32f7xx_hal_rtc_ex.c ****   
 524:Drivers/STM32F7xx_HAL_Driver/Src/stm32f7xx_hal_rtc_ex.c ****   /* Check the parameters */
 525:Drivers/STM32F7xx_HAL_Driver/Src/stm32f7xx_hal_rtc_ex.c ****   assert_param(IS_RTC_TAMPER(sTamper->Tamper)); 
 526:Drivers/STM32F7xx_HAL_Driver/Src/stm32f7xx_hal_rtc_ex.c ****   assert_param(IS_RTC_TAMPER_INTERRUPT(sTamper->Interrupt));
 527:Drivers/STM32F7xx_HAL_Driver/Src/stm32f7xx_hal_rtc_ex.c ****   assert_param(IS_RTC_TAMPER_TRIGGER(sTamper->Trigger));
 528:Drivers/STM32F7xx_HAL_Driver/Src/stm32f7xx_hal_rtc_ex.c ****   assert_param(IS_RTC_TAMPER_ERASE_MODE(sTamper->NoErase));
 529:Drivers/STM32F7xx_HAL_Driver/Src/stm32f7xx_hal_rtc_ex.c ****   assert_param(IS_RTC_TAMPER_MASKFLAG_STATE(sTamper->MaskFlag));
 530:Drivers/STM32F7xx_HAL_Driver/Src/stm32f7xx_hal_rtc_ex.c ****   assert_param(IS_RTC_TAMPER_FILTER(sTamper->Filter));
 531:Drivers/STM32F7xx_HAL_Driver/Src/stm32f7xx_hal_rtc_ex.c ****   assert_param(IS_RTC_TAMPER_SAMPLING_FREQ(sTamper->SamplingFrequency));         
 532:Drivers/STM32F7xx_HAL_Driver/Src/stm32f7xx_hal_rtc_ex.c ****   assert_param(IS_RTC_TAMPER_PRECHARGE_DURATION(sTamper->PrechargeDuration));
 533:Drivers/STM32F7xx_HAL_Driver/Src/stm32f7xx_hal_rtc_ex.c ****   assert_param(IS_RTC_TAMPER_PULLUP_STATE(sTamper->TamperPullUp));
 534:Drivers/STM32F7xx_HAL_Driver/Src/stm32f7xx_hal_rtc_ex.c ****   assert_param(IS_RTC_TAMPER_TIMESTAMPONTAMPER_DETECTION(sTamper->TimeStampOnTamperDetection));
 535:Drivers/STM32F7xx_HAL_Driver/Src/stm32f7xx_hal_rtc_ex.c ****  
 536:Drivers/STM32F7xx_HAL_Driver/Src/stm32f7xx_hal_rtc_ex.c ****   /* Process Locked */ 
 537:Drivers/STM32F7xx_HAL_Driver/Src/stm32f7xx_hal_rtc_ex.c ****   __HAL_LOCK(hrtc);
 766              		.loc 1 537 0
 767 0000 037F     		ldrb	r3, [r0, #28]	@ zero_extendqisi2
 768 0002 012B     		cmp	r3, #1
 769 0004 00F08B80 		beq	.L60
 521:Drivers/STM32F7xx_HAL_Driver/Src/stm32f7xx_hal_rtc_ex.c ****   uint32_t tmpreg = 0;
 770              		.loc 1 521 0 discriminator 2
ARM GAS  C:\Users\micha\AppData\Local\Temp\ccafMmKQ.s 			page 24


 771 0008 70B4     		push	{r4, r5, r6}
 772              	.LCFI11:
 773              		.cfi_def_cfa_offset 12
 774              		.cfi_offset 4, -12
 775              		.cfi_offset 5, -8
 776              		.cfi_offset 6, -4
 777              		.loc 1 537 0 discriminator 2
 778 000a 0123     		movs	r3, #1
 779 000c 0377     		strb	r3, [r0, #28]
 538:Drivers/STM32F7xx_HAL_Driver/Src/stm32f7xx_hal_rtc_ex.c ****       
 539:Drivers/STM32F7xx_HAL_Driver/Src/stm32f7xx_hal_rtc_ex.c ****   hrtc->State = HAL_RTC_STATE_BUSY;
 780              		.loc 1 539 0 discriminator 2
 781 000e 0223     		movs	r3, #2
 782 0010 4377     		strb	r3, [r0, #29]
 540:Drivers/STM32F7xx_HAL_Driver/Src/stm32f7xx_hal_rtc_ex.c ****   
 541:Drivers/STM32F7xx_HAL_Driver/Src/stm32f7xx_hal_rtc_ex.c ****   /* Configure the tamper trigger */
 542:Drivers/STM32F7xx_HAL_Driver/Src/stm32f7xx_hal_rtc_ex.c ****   if(sTamper->Trigger != RTC_TAMPERTRIGGER_RISINGEDGE)
 783              		.loc 1 542 0 discriminator 2
 784 0012 8B68     		ldr	r3, [r1, #8]
 785 0014 13B1     		cbz	r3, .L50
 543:Drivers/STM32F7xx_HAL_Driver/Src/stm32f7xx_hal_rtc_ex.c ****   { 
 544:Drivers/STM32F7xx_HAL_Driver/Src/stm32f7xx_hal_rtc_ex.c ****     sTamper->Trigger = (uint32_t)(sTamper->Tamper << 1); 
 786              		.loc 1 544 0
 787 0016 0B68     		ldr	r3, [r1]
 788 0018 5B00     		lsls	r3, r3, #1
 789 001a 8B60     		str	r3, [r1, #8]
 790              	.L50:
 545:Drivers/STM32F7xx_HAL_Driver/Src/stm32f7xx_hal_rtc_ex.c ****   } 
 546:Drivers/STM32F7xx_HAL_Driver/Src/stm32f7xx_hal_rtc_ex.c ****   
 547:Drivers/STM32F7xx_HAL_Driver/Src/stm32f7xx_hal_rtc_ex.c ****   if(sTamper->NoErase != RTC_TAMPER_ERASE_BACKUP_ENABLE)
 791              		.loc 1 547 0
 792 001c CB68     		ldr	r3, [r1, #12]
 793 001e B3B1     		cbz	r3, .L51
 548:Drivers/STM32F7xx_HAL_Driver/Src/stm32f7xx_hal_rtc_ex.c ****   { 
 549:Drivers/STM32F7xx_HAL_Driver/Src/stm32f7xx_hal_rtc_ex.c ****     sTamper->NoErase = 0;
 794              		.loc 1 549 0
 795 0020 0023     		movs	r3, #0
 796 0022 CB60     		str	r3, [r1, #12]
 550:Drivers/STM32F7xx_HAL_Driver/Src/stm32f7xx_hal_rtc_ex.c ****     if((sTamper->Tamper & RTC_TAMPER_1) != 0)
 797              		.loc 1 550 0
 798 0024 0B68     		ldr	r3, [r1]
 799 0026 13F0010F 		tst	r3, #1
 800 002a 02D0     		beq	.L52
 551:Drivers/STM32F7xx_HAL_Driver/Src/stm32f7xx_hal_rtc_ex.c ****     {
 552:Drivers/STM32F7xx_HAL_Driver/Src/stm32f7xx_hal_rtc_ex.c ****       sTamper->NoErase |= RTC_TAMPCR_TAMP1NOERASE;
 801              		.loc 1 552 0
 802 002c 4FF40032 		mov	r2, #131072
 803 0030 CA60     		str	r2, [r1, #12]
 804              	.L52:
 553:Drivers/STM32F7xx_HAL_Driver/Src/stm32f7xx_hal_rtc_ex.c ****     }
 554:Drivers/STM32F7xx_HAL_Driver/Src/stm32f7xx_hal_rtc_ex.c ****     if((sTamper->Tamper & RTC_TAMPER_2) != 0)
 805              		.loc 1 554 0
 806 0032 13F0080F 		tst	r3, #8
 807 0036 03D0     		beq	.L53
 555:Drivers/STM32F7xx_HAL_Driver/Src/stm32f7xx_hal_rtc_ex.c ****     {
 556:Drivers/STM32F7xx_HAL_Driver/Src/stm32f7xx_hal_rtc_ex.c ****       sTamper->NoErase |= RTC_TAMPCR_TAMP2NOERASE;
 808              		.loc 1 556 0
ARM GAS  C:\Users\micha\AppData\Local\Temp\ccafMmKQ.s 			page 25


 809 0038 CA68     		ldr	r2, [r1, #12]
 810 003a 42F48012 		orr	r2, r2, #1048576
 811 003e CA60     		str	r2, [r1, #12]
 812              	.L53:
 557:Drivers/STM32F7xx_HAL_Driver/Src/stm32f7xx_hal_rtc_ex.c ****     }
 558:Drivers/STM32F7xx_HAL_Driver/Src/stm32f7xx_hal_rtc_ex.c ****     if((sTamper->Tamper & RTC_TAMPER_3) != 0)
 813              		.loc 1 558 0
 814 0040 13F0200F 		tst	r3, #32
 815 0044 03D0     		beq	.L51
 559:Drivers/STM32F7xx_HAL_Driver/Src/stm32f7xx_hal_rtc_ex.c ****     {
 560:Drivers/STM32F7xx_HAL_Driver/Src/stm32f7xx_hal_rtc_ex.c ****       sTamper->NoErase |= RTC_TAMPCR_TAMP3NOERASE;
 816              		.loc 1 560 0
 817 0046 CB68     		ldr	r3, [r1, #12]
 818 0048 43F40003 		orr	r3, r3, #8388608
 819 004c CB60     		str	r3, [r1, #12]
 820              	.L51:
 561:Drivers/STM32F7xx_HAL_Driver/Src/stm32f7xx_hal_rtc_ex.c ****     }
 562:Drivers/STM32F7xx_HAL_Driver/Src/stm32f7xx_hal_rtc_ex.c ****   }
 563:Drivers/STM32F7xx_HAL_Driver/Src/stm32f7xx_hal_rtc_ex.c **** 
 564:Drivers/STM32F7xx_HAL_Driver/Src/stm32f7xx_hal_rtc_ex.c ****   if(sTamper->MaskFlag != RTC_TAMPERMASK_FLAG_DISABLE)
 821              		.loc 1 564 0
 822 004e 0B69     		ldr	r3, [r1, #16]
 823 0050 B3B1     		cbz	r3, .L54
 565:Drivers/STM32F7xx_HAL_Driver/Src/stm32f7xx_hal_rtc_ex.c ****   {
 566:Drivers/STM32F7xx_HAL_Driver/Src/stm32f7xx_hal_rtc_ex.c ****     sTamper->MaskFlag = 0;
 824              		.loc 1 566 0
 825 0052 0023     		movs	r3, #0
 826 0054 0B61     		str	r3, [r1, #16]
 567:Drivers/STM32F7xx_HAL_Driver/Src/stm32f7xx_hal_rtc_ex.c ****     if((sTamper->Tamper & RTC_TAMPER_1) != 0)
 827              		.loc 1 567 0
 828 0056 0B68     		ldr	r3, [r1]
 829 0058 13F0010F 		tst	r3, #1
 830 005c 02D0     		beq	.L55
 568:Drivers/STM32F7xx_HAL_Driver/Src/stm32f7xx_hal_rtc_ex.c ****     {
 569:Drivers/STM32F7xx_HAL_Driver/Src/stm32f7xx_hal_rtc_ex.c ****       sTamper->MaskFlag |= RTC_TAMPCR_TAMP1MF;
 831              		.loc 1 569 0
 832 005e 4FF48022 		mov	r2, #262144
 833 0062 0A61     		str	r2, [r1, #16]
 834              	.L55:
 570:Drivers/STM32F7xx_HAL_Driver/Src/stm32f7xx_hal_rtc_ex.c ****     }
 571:Drivers/STM32F7xx_HAL_Driver/Src/stm32f7xx_hal_rtc_ex.c ****     if((sTamper->Tamper & RTC_TAMPER_2) != 0)
 835              		.loc 1 571 0
 836 0064 13F0080F 		tst	r3, #8
 837 0068 03D0     		beq	.L56
 572:Drivers/STM32F7xx_HAL_Driver/Src/stm32f7xx_hal_rtc_ex.c ****     {
 573:Drivers/STM32F7xx_HAL_Driver/Src/stm32f7xx_hal_rtc_ex.c ****       sTamper->MaskFlag |= RTC_TAMPCR_TAMP2MF;
 838              		.loc 1 573 0
 839 006a 0A69     		ldr	r2, [r1, #16]
 840 006c 42F40012 		orr	r2, r2, #2097152
 841 0070 0A61     		str	r2, [r1, #16]
 842              	.L56:
 574:Drivers/STM32F7xx_HAL_Driver/Src/stm32f7xx_hal_rtc_ex.c ****     }
 575:Drivers/STM32F7xx_HAL_Driver/Src/stm32f7xx_hal_rtc_ex.c ****     if((sTamper->Tamper & RTC_TAMPER_3) != 0)
 843              		.loc 1 575 0
 844 0072 13F0200F 		tst	r3, #32
 845 0076 03D0     		beq	.L54
 576:Drivers/STM32F7xx_HAL_Driver/Src/stm32f7xx_hal_rtc_ex.c ****     {
ARM GAS  C:\Users\micha\AppData\Local\Temp\ccafMmKQ.s 			page 26


 577:Drivers/STM32F7xx_HAL_Driver/Src/stm32f7xx_hal_rtc_ex.c ****       sTamper->MaskFlag |= RTC_TAMPCR_TAMP3MF;
 846              		.loc 1 577 0
 847 0078 0B69     		ldr	r3, [r1, #16]
 848 007a 43F08073 		orr	r3, r3, #16777216
 849 007e 0B61     		str	r3, [r1, #16]
 850              	.L54:
 578:Drivers/STM32F7xx_HAL_Driver/Src/stm32f7xx_hal_rtc_ex.c ****     }
 579:Drivers/STM32F7xx_HAL_Driver/Src/stm32f7xx_hal_rtc_ex.c ****   }
 580:Drivers/STM32F7xx_HAL_Driver/Src/stm32f7xx_hal_rtc_ex.c ****   
 581:Drivers/STM32F7xx_HAL_Driver/Src/stm32f7xx_hal_rtc_ex.c ****   tmpreg = ((uint32_t)sTamper->Tamper | (uint32_t)sTamper->Interrupt | (uint32_t)sTamper->Trigger  
 851              		.loc 1 581 0
 852 0080 0A68     		ldr	r2, [r1]
 853 0082 4B68     		ldr	r3, [r1, #4]
 854 0084 1343     		orrs	r3, r3, r2
 855 0086 8C68     		ldr	r4, [r1, #8]
 856 0088 2343     		orrs	r3, r3, r4
 857 008a CC68     		ldr	r4, [r1, #12]
 858 008c 2343     		orrs	r3, r3, r4
 582:Drivers/STM32F7xx_HAL_Driver/Src/stm32f7xx_hal_rtc_ex.c ****             (uint32_t)sTamper->MaskFlag | (uint32_t)sTamper->Filter | (uint32_t)sTamper->SamplingFr
 859              		.loc 1 582 0
 860 008e 0C69     		ldr	r4, [r1, #16]
 581:Drivers/STM32F7xx_HAL_Driver/Src/stm32f7xx_hal_rtc_ex.c ****             (uint32_t)sTamper->MaskFlag | (uint32_t)sTamper->Filter | (uint32_t)sTamper->SamplingFr
 861              		.loc 1 581 0
 862 0090 2343     		orrs	r3, r3, r4
 863              		.loc 1 582 0
 864 0092 4C69     		ldr	r4, [r1, #20]
 865 0094 2343     		orrs	r3, r3, r4
 866 0096 8C69     		ldr	r4, [r1, #24]
 867 0098 2343     		orrs	r3, r3, r4
 583:Drivers/STM32F7xx_HAL_Driver/Src/stm32f7xx_hal_rtc_ex.c ****             (uint32_t)sTamper->PrechargeDuration | (uint32_t)sTamper->TamperPullUp | sTamper->TimeS
 868              		.loc 1 583 0
 869 009a CC69     		ldr	r4, [r1, #28]
 582:Drivers/STM32F7xx_HAL_Driver/Src/stm32f7xx_hal_rtc_ex.c ****             (uint32_t)sTamper->MaskFlag | (uint32_t)sTamper->Filter | (uint32_t)sTamper->SamplingFr
 870              		.loc 1 582 0
 871 009c 2343     		orrs	r3, r3, r4
 872              		.loc 1 583 0
 873 009e 0C6A     		ldr	r4, [r1, #32]
 874 00a0 2343     		orrs	r3, r3, r4
 875 00a2 4C6A     		ldr	r4, [r1, #36]
 581:Drivers/STM32F7xx_HAL_Driver/Src/stm32f7xx_hal_rtc_ex.c ****             (uint32_t)sTamper->MaskFlag | (uint32_t)sTamper->Filter | (uint32_t)sTamper->SamplingFr
 876              		.loc 1 581 0
 877 00a4 2343     		orrs	r3, r3, r4
 878              	.LVL59:
 584:Drivers/STM32F7xx_HAL_Driver/Src/stm32f7xx_hal_rtc_ex.c ****   
 585:Drivers/STM32F7xx_HAL_Driver/Src/stm32f7xx_hal_rtc_ex.c ****   hrtc->Instance->TAMPCR &= (uint32_t)~((uint32_t)sTamper->Tamper | (uint32_t)(sTamper->Tamper << 1
 879              		.loc 1 585 0
 880 00a6 0668     		ldr	r6, [r0]
 881 00a8 346C     		ldr	r4, [r6, #64]
 882 00aa 42EA4202 		orr	r2, r2, r2, lsl #1
 586:Drivers/STM32F7xx_HAL_Driver/Src/stm32f7xx_hal_rtc_ex.c ****                                        (uint32_t)RTC_TAMPCR_TAMPFREQ | (uint32_t)RTC_TAMPCR_TAMPFLT
 587:Drivers/STM32F7xx_HAL_Driver/Src/stm32f7xx_hal_rtc_ex.c ****                                        (uint32_t)RTC_TAMPCR_TAMPPUDIS | (uint32_t)RTC_TAMPCR_TAMPIE
 588:Drivers/STM32F7xx_HAL_Driver/Src/stm32f7xx_hal_rtc_ex.c ****                                        (uint32_t)RTC_TAMPCR_TAMP2IE | (uint32_t)RTC_TAMPCR_TAMP3IE 
 589:Drivers/STM32F7xx_HAL_Driver/Src/stm32f7xx_hal_rtc_ex.c ****                                        (uint32_t)RTC_TAMPCR_TAMP2NOERASE | (uint32_t)RTC_TAMPCR_TAM
 590:Drivers/STM32F7xx_HAL_Driver/Src/stm32f7xx_hal_rtc_ex.c ****                                        (uint32_t)RTC_TAMPCR_TAMP2MF | (uint32_t)RTC_TAMPCR_TAMP3MF)
 883              		.loc 1 590 0
 884 00ae 1D4D     		ldr	r5, .L67
 885 00b0 1543     		orrs	r5, r5, r2
ARM GAS  C:\Users\micha\AppData\Local\Temp\ccafMmKQ.s 			page 27


 585:Drivers/STM32F7xx_HAL_Driver/Src/stm32f7xx_hal_rtc_ex.c ****                                        (uint32_t)RTC_TAMPCR_TAMPFREQ | (uint32_t)RTC_TAMPCR_TAMPFLT
 886              		.loc 1 585 0
 887 00b2 24EA0504 		bic	r4, r4, r5
 888 00b6 3464     		str	r4, [r6, #64]
 591:Drivers/STM32F7xx_HAL_Driver/Src/stm32f7xx_hal_rtc_ex.c **** 
 592:Drivers/STM32F7xx_HAL_Driver/Src/stm32f7xx_hal_rtc_ex.c ****   hrtc->Instance->TAMPCR |= tmpreg;
 889              		.loc 1 592 0
 890 00b8 0468     		ldr	r4, [r0]
 891 00ba 226C     		ldr	r2, [r4, #64]
 892 00bc 1343     		orrs	r3, r3, r2
 893              	.LVL60:
 894 00be 2364     		str	r3, [r4, #64]
 593:Drivers/STM32F7xx_HAL_Driver/Src/stm32f7xx_hal_rtc_ex.c ****   
 594:Drivers/STM32F7xx_HAL_Driver/Src/stm32f7xx_hal_rtc_ex.c ****   if(sTamper->Tamper == RTC_TAMPER_1)
 895              		.loc 1 594 0
 896 00c0 0B68     		ldr	r3, [r1]
 897 00c2 012B     		cmp	r3, #1
 898 00c4 1DD0     		beq	.L65
 595:Drivers/STM32F7xx_HAL_Driver/Src/stm32f7xx_hal_rtc_ex.c ****   {
 596:Drivers/STM32F7xx_HAL_Driver/Src/stm32f7xx_hal_rtc_ex.c ****     /* Clear RTC Tamper 1 flag */
 597:Drivers/STM32F7xx_HAL_Driver/Src/stm32f7xx_hal_rtc_ex.c ****     __HAL_RTC_TAMPER_CLEAR_FLAG(hrtc, RTC_FLAG_TAMP1F);
 598:Drivers/STM32F7xx_HAL_Driver/Src/stm32f7xx_hal_rtc_ex.c ****   }
 599:Drivers/STM32F7xx_HAL_Driver/Src/stm32f7xx_hal_rtc_ex.c ****   else if(sTamper->Tamper == RTC_TAMPER_2)
 899              		.loc 1 599 0
 900 00c6 082B     		cmp	r3, #8
 901 00c8 22D0     		beq	.L66
 600:Drivers/STM32F7xx_HAL_Driver/Src/stm32f7xx_hal_rtc_ex.c ****   {
 601:Drivers/STM32F7xx_HAL_Driver/Src/stm32f7xx_hal_rtc_ex.c ****     /* Clear RTC Tamper 2 flag */
 602:Drivers/STM32F7xx_HAL_Driver/Src/stm32f7xx_hal_rtc_ex.c ****     __HAL_RTC_TAMPER_CLEAR_FLAG(hrtc, RTC_FLAG_TAMP2F);    
 603:Drivers/STM32F7xx_HAL_Driver/Src/stm32f7xx_hal_rtc_ex.c ****   }
 604:Drivers/STM32F7xx_HAL_Driver/Src/stm32f7xx_hal_rtc_ex.c ****   else
 605:Drivers/STM32F7xx_HAL_Driver/Src/stm32f7xx_hal_rtc_ex.c ****   {
 606:Drivers/STM32F7xx_HAL_Driver/Src/stm32f7xx_hal_rtc_ex.c ****     /* Clear RTC Tamper 3 flag */
 607:Drivers/STM32F7xx_HAL_Driver/Src/stm32f7xx_hal_rtc_ex.c ****     __HAL_RTC_TAMPER_CLEAR_FLAG(hrtc, RTC_FLAG_TAMP3F);  
 902              		.loc 1 607 0
 903 00ca 0268     		ldr	r2, [r0]
 904 00cc D368     		ldr	r3, [r2, #12]
 905 00ce DBB2     		uxtb	r3, r3
 906 00d0 43F07F43 		orr	r3, r3, #-16777216
 907 00d4 43F47F03 		orr	r3, r3, #16711680
 908 00d8 43F4FE43 		orr	r3, r3, #32512
 909 00dc 43F07F03 		orr	r3, r3, #127
 910 00e0 D360     		str	r3, [r2, #12]
 911              	.L58:
 608:Drivers/STM32F7xx_HAL_Driver/Src/stm32f7xx_hal_rtc_ex.c ****   }
 609:Drivers/STM32F7xx_HAL_Driver/Src/stm32f7xx_hal_rtc_ex.c **** 
 610:Drivers/STM32F7xx_HAL_Driver/Src/stm32f7xx_hal_rtc_ex.c ****   /* RTC Tamper Interrupt Configuration: EXTI configuration */
 611:Drivers/STM32F7xx_HAL_Driver/Src/stm32f7xx_hal_rtc_ex.c ****   __HAL_RTC_TAMPER_TIMESTAMP_EXTI_ENABLE_IT();
 912              		.loc 1 611 0
 913 00e2 114B     		ldr	r3, .L67+4
 914 00e4 1A68     		ldr	r2, [r3]
 915 00e6 42F40012 		orr	r2, r2, #2097152
 916 00ea 1A60     		str	r2, [r3]
 612:Drivers/STM32F7xx_HAL_Driver/Src/stm32f7xx_hal_rtc_ex.c **** 
 613:Drivers/STM32F7xx_HAL_Driver/Src/stm32f7xx_hal_rtc_ex.c ****   EXTI->RTSR |= RTC_EXTI_LINE_TAMPER_TIMESTAMP_EVENT;
 917              		.loc 1 613 0
 918 00ec 9A68     		ldr	r2, [r3, #8]
ARM GAS  C:\Users\micha\AppData\Local\Temp\ccafMmKQ.s 			page 28


 919 00ee 42F40012 		orr	r2, r2, #2097152
 920 00f2 9A60     		str	r2, [r3, #8]
 614:Drivers/STM32F7xx_HAL_Driver/Src/stm32f7xx_hal_rtc_ex.c ****   
 615:Drivers/STM32F7xx_HAL_Driver/Src/stm32f7xx_hal_rtc_ex.c ****   hrtc->State = HAL_RTC_STATE_READY;   
 921              		.loc 1 615 0
 922 00f4 0123     		movs	r3, #1
 923 00f6 4377     		strb	r3, [r0, #29]
 616:Drivers/STM32F7xx_HAL_Driver/Src/stm32f7xx_hal_rtc_ex.c ****   
 617:Drivers/STM32F7xx_HAL_Driver/Src/stm32f7xx_hal_rtc_ex.c ****   /* Process Unlocked */ 
 618:Drivers/STM32F7xx_HAL_Driver/Src/stm32f7xx_hal_rtc_ex.c ****   __HAL_UNLOCK(hrtc);
 924              		.loc 1 618 0
 925 00f8 0023     		movs	r3, #0
 926 00fa 0377     		strb	r3, [r0, #28]
 619:Drivers/STM32F7xx_HAL_Driver/Src/stm32f7xx_hal_rtc_ex.c ****   
 620:Drivers/STM32F7xx_HAL_Driver/Src/stm32f7xx_hal_rtc_ex.c ****   return HAL_OK;
 927              		.loc 1 620 0
 928 00fc 1846     		mov	r0, r3
 929              	.LVL61:
 621:Drivers/STM32F7xx_HAL_Driver/Src/stm32f7xx_hal_rtc_ex.c **** }
 930              		.loc 1 621 0
 931 00fe 70BC     		pop	{r4, r5, r6}
 932              	.LCFI12:
 933              		.cfi_remember_state
 934              		.cfi_restore 6
 935              		.cfi_restore 5
 936              		.cfi_restore 4
 937              		.cfi_def_cfa_offset 0
 938 0100 7047     		bx	lr
 939              	.LVL62:
 940              	.L65:
 941              	.LCFI13:
 942              		.cfi_restore_state
 597:Drivers/STM32F7xx_HAL_Driver/Src/stm32f7xx_hal_rtc_ex.c ****   }
 943              		.loc 1 597 0
 944 0102 0268     		ldr	r2, [r0]
 945 0104 D368     		ldr	r3, [r2, #12]
 946 0106 DBB2     		uxtb	r3, r3
 947 0108 63F40253 		orn	r3, r3, #8320
 948 010c D360     		str	r3, [r2, #12]
 949 010e E8E7     		b	.L58
 950              	.L66:
 602:Drivers/STM32F7xx_HAL_Driver/Src/stm32f7xx_hal_rtc_ex.c ****   }
 951              		.loc 1 602 0
 952 0110 0268     		ldr	r2, [r0]
 953 0112 D368     		ldr	r3, [r2, #12]
 954 0114 DBB2     		uxtb	r3, r3
 955 0116 63F48143 		orn	r3, r3, #16512
 956 011a D360     		str	r3, [r2, #12]
 957 011c E1E7     		b	.L58
 958              	.LVL63:
 959              	.L60:
 960              	.LCFI14:
 961              		.cfi_def_cfa_offset 0
 962              		.cfi_restore 4
 963              		.cfi_restore 5
 964              		.cfi_restore 6
 537:Drivers/STM32F7xx_HAL_Driver/Src/stm32f7xx_hal_rtc_ex.c ****       
ARM GAS  C:\Users\micha\AppData\Local\Temp\ccafMmKQ.s 			page 29


 965              		.loc 1 537 0
 966 011e 0220     		movs	r0, #2
 967              	.LVL64:
 968              		.loc 1 621 0
 969 0120 7047     		bx	lr
 970              	.L68:
 971 0122 00BF     		.align	2
 972              	.L67:
 973 0124 84FFFF01 		.word	33554308
 974 0128 003C0140 		.word	1073822720
 975              		.cfi_endproc
 976              	.LFE145:
 978              		.section	.text.HAL_RTCEx_DeactivateTamper,"ax",%progbits
 979              		.align	1
 980              		.global	HAL_RTCEx_DeactivateTamper
 981              		.syntax unified
 982              		.thumb
 983              		.thumb_func
 984              		.fpu fpv5-sp-d16
 986              	HAL_RTCEx_DeactivateTamper:
 987              	.LFB146:
 622:Drivers/STM32F7xx_HAL_Driver/Src/stm32f7xx_hal_rtc_ex.c **** 
 623:Drivers/STM32F7xx_HAL_Driver/Src/stm32f7xx_hal_rtc_ex.c **** /**
 624:Drivers/STM32F7xx_HAL_Driver/Src/stm32f7xx_hal_rtc_ex.c ****   * @brief  Deactivates Tamper.
 625:Drivers/STM32F7xx_HAL_Driver/Src/stm32f7xx_hal_rtc_ex.c ****   * @param  hrtc pointer to a RTC_HandleTypeDef structure that contains
 626:Drivers/STM32F7xx_HAL_Driver/Src/stm32f7xx_hal_rtc_ex.c ****   *                the configuration information for RTC.
 627:Drivers/STM32F7xx_HAL_Driver/Src/stm32f7xx_hal_rtc_ex.c ****   * @param  Tamper Selected tamper pin.
 628:Drivers/STM32F7xx_HAL_Driver/Src/stm32f7xx_hal_rtc_ex.c ****   *          This parameter can be RTC_Tamper_1 and/or RTC_TAMPER_2.
 629:Drivers/STM32F7xx_HAL_Driver/Src/stm32f7xx_hal_rtc_ex.c ****   * @retval HAL status
 630:Drivers/STM32F7xx_HAL_Driver/Src/stm32f7xx_hal_rtc_ex.c ****   */
 631:Drivers/STM32F7xx_HAL_Driver/Src/stm32f7xx_hal_rtc_ex.c **** HAL_StatusTypeDef HAL_RTCEx_DeactivateTamper(RTC_HandleTypeDef *hrtc, uint32_t Tamper)
 632:Drivers/STM32F7xx_HAL_Driver/Src/stm32f7xx_hal_rtc_ex.c **** {
 988              		.loc 1 632 0
 989              		.cfi_startproc
 990              		@ args = 0, pretend = 0, frame = 0
 991              		@ frame_needed = 0, uses_anonymous_args = 0
 992              		@ link register save eliminated.
 993              	.LVL65:
 633:Drivers/STM32F7xx_HAL_Driver/Src/stm32f7xx_hal_rtc_ex.c ****   assert_param(IS_RTC_TAMPER(Tamper)); 
 634:Drivers/STM32F7xx_HAL_Driver/Src/stm32f7xx_hal_rtc_ex.c ****   
 635:Drivers/STM32F7xx_HAL_Driver/Src/stm32f7xx_hal_rtc_ex.c ****   /* Process Locked */ 
 636:Drivers/STM32F7xx_HAL_Driver/Src/stm32f7xx_hal_rtc_ex.c ****   __HAL_LOCK(hrtc);
 994              		.loc 1 636 0
 995 0000 037F     		ldrb	r3, [r0, #28]	@ zero_extendqisi2
 996 0002 012B     		cmp	r3, #1
 997 0004 29D0     		beq	.L74
 632:Drivers/STM32F7xx_HAL_Driver/Src/stm32f7xx_hal_rtc_ex.c ****   assert_param(IS_RTC_TAMPER(Tamper)); 
 998              		.loc 1 632 0 discriminator 2
 999 0006 10B4     		push	{r4}
 1000              	.LCFI15:
 1001              		.cfi_def_cfa_offset 4
 1002              		.cfi_offset 4, -4
 1003              		.loc 1 636 0 discriminator 2
 1004 0008 0123     		movs	r3, #1
 1005 000a 0377     		strb	r3, [r0, #28]
 637:Drivers/STM32F7xx_HAL_Driver/Src/stm32f7xx_hal_rtc_ex.c ****       
 638:Drivers/STM32F7xx_HAL_Driver/Src/stm32f7xx_hal_rtc_ex.c ****   hrtc->State = HAL_RTC_STATE_BUSY;
ARM GAS  C:\Users\micha\AppData\Local\Temp\ccafMmKQ.s 			page 30


 1006              		.loc 1 638 0 discriminator 2
 1007 000c 0223     		movs	r3, #2
 1008 000e 4377     		strb	r3, [r0, #29]
 639:Drivers/STM32F7xx_HAL_Driver/Src/stm32f7xx_hal_rtc_ex.c ****   
 640:Drivers/STM32F7xx_HAL_Driver/Src/stm32f7xx_hal_rtc_ex.c **** /* Disable the selected Tamper pin */
 641:Drivers/STM32F7xx_HAL_Driver/Src/stm32f7xx_hal_rtc_ex.c ****   hrtc->Instance->TAMPCR &= (uint32_t)~Tamper;
 1009              		.loc 1 641 0 discriminator 2
 1010 0010 0268     		ldr	r2, [r0]
 1011 0012 136C     		ldr	r3, [r2, #64]
 1012 0014 23EA0103 		bic	r3, r3, r1
 1013 0018 1364     		str	r3, [r2, #64]
 642:Drivers/STM32F7xx_HAL_Driver/Src/stm32f7xx_hal_rtc_ex.c **** 
 643:Drivers/STM32F7xx_HAL_Driver/Src/stm32f7xx_hal_rtc_ex.c ****   if ((Tamper & RTC_TAMPER_1) != 0)
 1014              		.loc 1 643 0 discriminator 2
 1015 001a 11F0010F 		tst	r1, #1
 1016 001e 04D0     		beq	.L71
 644:Drivers/STM32F7xx_HAL_Driver/Src/stm32f7xx_hal_rtc_ex.c ****   {
 645:Drivers/STM32F7xx_HAL_Driver/Src/stm32f7xx_hal_rtc_ex.c ****     /* Disable the Tamper1 interrupt */
 646:Drivers/STM32F7xx_HAL_Driver/Src/stm32f7xx_hal_rtc_ex.c ****     hrtc->Instance->TAMPCR &= (uint32_t)~(RTC_IT_TAMP | RTC_IT_TAMP1);
 1017              		.loc 1 646 0
 1018 0020 0268     		ldr	r2, [r0]
 1019 0022 146C     		ldr	r4, [r2, #64]
 1020 0024 0E4B     		ldr	r3, .L79
 1021 0026 2340     		ands	r3, r3, r4
 1022 0028 1364     		str	r3, [r2, #64]
 1023              	.L71:
 647:Drivers/STM32F7xx_HAL_Driver/Src/stm32f7xx_hal_rtc_ex.c ****   }
 648:Drivers/STM32F7xx_HAL_Driver/Src/stm32f7xx_hal_rtc_ex.c ****   if ((Tamper & RTC_TAMPER_2) != 0)
 1024              		.loc 1 648 0
 1025 002a 11F0080F 		tst	r1, #8
 1026 002e 04D0     		beq	.L72
 649:Drivers/STM32F7xx_HAL_Driver/Src/stm32f7xx_hal_rtc_ex.c ****   {
 650:Drivers/STM32F7xx_HAL_Driver/Src/stm32f7xx_hal_rtc_ex.c ****     /* Disable the Tamper2 interrupt */
 651:Drivers/STM32F7xx_HAL_Driver/Src/stm32f7xx_hal_rtc_ex.c ****     hrtc->Instance->TAMPCR &= (uint32_t)~(RTC_IT_TAMP | RTC_IT_TAMP2);
 1027              		.loc 1 651 0
 1028 0030 0268     		ldr	r2, [r0]
 1029 0032 146C     		ldr	r4, [r2, #64]
 1030 0034 0B4B     		ldr	r3, .L79+4
 1031 0036 2340     		ands	r3, r3, r4
 1032 0038 1364     		str	r3, [r2, #64]
 1033              	.L72:
 652:Drivers/STM32F7xx_HAL_Driver/Src/stm32f7xx_hal_rtc_ex.c ****   }
 653:Drivers/STM32F7xx_HAL_Driver/Src/stm32f7xx_hal_rtc_ex.c ****   if ((Tamper & RTC_TAMPER_3) != 0)
 1034              		.loc 1 653 0
 1035 003a 11F0200F 		tst	r1, #32
 1036 003e 04D0     		beq	.L73
 654:Drivers/STM32F7xx_HAL_Driver/Src/stm32f7xx_hal_rtc_ex.c ****   {
 655:Drivers/STM32F7xx_HAL_Driver/Src/stm32f7xx_hal_rtc_ex.c ****     /* Disable the Tamper2 interrupt */
 656:Drivers/STM32F7xx_HAL_Driver/Src/stm32f7xx_hal_rtc_ex.c ****     hrtc->Instance->TAMPCR &= (uint32_t)~(RTC_IT_TAMP | RTC_IT_TAMP3);
 1037              		.loc 1 656 0
 1038 0040 0268     		ldr	r2, [r0]
 1039 0042 116C     		ldr	r1, [r2, #64]
 1040              	.LVL66:
 1041 0044 084B     		ldr	r3, .L79+8
 1042 0046 0B40     		ands	r3, r3, r1
 1043 0048 1364     		str	r3, [r2, #64]
 1044              	.L73:
ARM GAS  C:\Users\micha\AppData\Local\Temp\ccafMmKQ.s 			page 31


 657:Drivers/STM32F7xx_HAL_Driver/Src/stm32f7xx_hal_rtc_ex.c ****   } 
 658:Drivers/STM32F7xx_HAL_Driver/Src/stm32f7xx_hal_rtc_ex.c ****   
 659:Drivers/STM32F7xx_HAL_Driver/Src/stm32f7xx_hal_rtc_ex.c ****   hrtc->State = HAL_RTC_STATE_READY;   
 1045              		.loc 1 659 0
 1046 004a 0123     		movs	r3, #1
 1047 004c 4377     		strb	r3, [r0, #29]
 660:Drivers/STM32F7xx_HAL_Driver/Src/stm32f7xx_hal_rtc_ex.c ****   
 661:Drivers/STM32F7xx_HAL_Driver/Src/stm32f7xx_hal_rtc_ex.c ****   /* Process Unlocked */  
 662:Drivers/STM32F7xx_HAL_Driver/Src/stm32f7xx_hal_rtc_ex.c ****   __HAL_UNLOCK(hrtc);
 1048              		.loc 1 662 0
 1049 004e 0023     		movs	r3, #0
 1050 0050 0377     		strb	r3, [r0, #28]
 663:Drivers/STM32F7xx_HAL_Driver/Src/stm32f7xx_hal_rtc_ex.c ****   
 664:Drivers/STM32F7xx_HAL_Driver/Src/stm32f7xx_hal_rtc_ex.c ****   return HAL_OK; 
 1051              		.loc 1 664 0
 1052 0052 1846     		mov	r0, r3
 1053              	.LVL67:
 665:Drivers/STM32F7xx_HAL_Driver/Src/stm32f7xx_hal_rtc_ex.c **** }
 1054              		.loc 1 665 0
 1055 0054 5DF8044B 		ldr	r4, [sp], #4
 1056              	.LCFI16:
 1057              		.cfi_restore 4
 1058              		.cfi_def_cfa_offset 0
 1059 0058 7047     		bx	lr
 1060              	.LVL68:
 1061              	.L74:
 636:Drivers/STM32F7xx_HAL_Driver/Src/stm32f7xx_hal_rtc_ex.c ****       
 1062              		.loc 1 636 0
 1063 005a 0220     		movs	r0, #2
 1064              	.LVL69:
 1065              		.loc 1 665 0
 1066 005c 7047     		bx	lr
 1067              	.L80:
 1068 005e 00BF     		.align	2
 1069              	.L79:
 1070 0060 FBFFFEFF 		.word	-65541
 1071 0064 FBFFF7FF 		.word	-524293
 1072 0068 FBFFBFFF 		.word	-4194309
 1073              		.cfi_endproc
 1074              	.LFE146:
 1076              		.section	.text.HAL_RTCEx_TimeStampEventCallback,"ax",%progbits
 1077              		.align	1
 1078              		.weak	HAL_RTCEx_TimeStampEventCallback
 1079              		.syntax unified
 1080              		.thumb
 1081              		.thumb_func
 1082              		.fpu fpv5-sp-d16
 1084              	HAL_RTCEx_TimeStampEventCallback:
 1085              	.LFB148:
 666:Drivers/STM32F7xx_HAL_Driver/Src/stm32f7xx_hal_rtc_ex.c **** 
 667:Drivers/STM32F7xx_HAL_Driver/Src/stm32f7xx_hal_rtc_ex.c **** /**
 668:Drivers/STM32F7xx_HAL_Driver/Src/stm32f7xx_hal_rtc_ex.c ****   * @brief  This function handles TimeStamp interrupt request.
 669:Drivers/STM32F7xx_HAL_Driver/Src/stm32f7xx_hal_rtc_ex.c ****   * @param  hrtc pointer to a RTC_HandleTypeDef structure that contains
 670:Drivers/STM32F7xx_HAL_Driver/Src/stm32f7xx_hal_rtc_ex.c ****   *                the configuration information for RTC.
 671:Drivers/STM32F7xx_HAL_Driver/Src/stm32f7xx_hal_rtc_ex.c ****   * @retval None
 672:Drivers/STM32F7xx_HAL_Driver/Src/stm32f7xx_hal_rtc_ex.c ****   */
 673:Drivers/STM32F7xx_HAL_Driver/Src/stm32f7xx_hal_rtc_ex.c **** void HAL_RTCEx_TamperTimeStampIRQHandler(RTC_HandleTypeDef *hrtc)
ARM GAS  C:\Users\micha\AppData\Local\Temp\ccafMmKQ.s 			page 32


 674:Drivers/STM32F7xx_HAL_Driver/Src/stm32f7xx_hal_rtc_ex.c **** {  
 675:Drivers/STM32F7xx_HAL_Driver/Src/stm32f7xx_hal_rtc_ex.c ****   if(__HAL_RTC_TIMESTAMP_GET_IT(hrtc, RTC_IT_TS))
 676:Drivers/STM32F7xx_HAL_Driver/Src/stm32f7xx_hal_rtc_ex.c ****   {
 677:Drivers/STM32F7xx_HAL_Driver/Src/stm32f7xx_hal_rtc_ex.c ****     /* Get the status of the Interrupt */
 678:Drivers/STM32F7xx_HAL_Driver/Src/stm32f7xx_hal_rtc_ex.c ****     if((uint32_t)(hrtc->Instance->CR & RTC_IT_TS) != (uint32_t)RESET)
 679:Drivers/STM32F7xx_HAL_Driver/Src/stm32f7xx_hal_rtc_ex.c ****     {
 680:Drivers/STM32F7xx_HAL_Driver/Src/stm32f7xx_hal_rtc_ex.c ****        /* TIMESTAMP callback */ 
 681:Drivers/STM32F7xx_HAL_Driver/Src/stm32f7xx_hal_rtc_ex.c ****         HAL_RTCEx_TimeStampEventCallback(hrtc);
 682:Drivers/STM32F7xx_HAL_Driver/Src/stm32f7xx_hal_rtc_ex.c **** 
 683:Drivers/STM32F7xx_HAL_Driver/Src/stm32f7xx_hal_rtc_ex.c ****       /* Clear the TIMESTAMP interrupt pending bit */
 684:Drivers/STM32F7xx_HAL_Driver/Src/stm32f7xx_hal_rtc_ex.c ****       __HAL_RTC_TIMESTAMP_CLEAR_FLAG(hrtc,RTC_FLAG_TSF);
 685:Drivers/STM32F7xx_HAL_Driver/Src/stm32f7xx_hal_rtc_ex.c ****     }
 686:Drivers/STM32F7xx_HAL_Driver/Src/stm32f7xx_hal_rtc_ex.c ****   }
 687:Drivers/STM32F7xx_HAL_Driver/Src/stm32f7xx_hal_rtc_ex.c **** 
 688:Drivers/STM32F7xx_HAL_Driver/Src/stm32f7xx_hal_rtc_ex.c ****   /* Get the status of the Interrupt */
 689:Drivers/STM32F7xx_HAL_Driver/Src/stm32f7xx_hal_rtc_ex.c ****   if(__HAL_RTC_TAMPER_GET_FLAG(hrtc, RTC_FLAG_TAMP1F)== SET)
 690:Drivers/STM32F7xx_HAL_Driver/Src/stm32f7xx_hal_rtc_ex.c ****   {
 691:Drivers/STM32F7xx_HAL_Driver/Src/stm32f7xx_hal_rtc_ex.c ****     /* Get the TAMPER Interrupt enable bit and pending bit */
 692:Drivers/STM32F7xx_HAL_Driver/Src/stm32f7xx_hal_rtc_ex.c ****     if((((hrtc->Instance->TAMPCR & RTC_TAMPCR_TAMPIE)) != (uint32_t)RESET) || \
 693:Drivers/STM32F7xx_HAL_Driver/Src/stm32f7xx_hal_rtc_ex.c ****        (((hrtc->Instance->TAMPCR & RTC_TAMPCR_TAMP1IE)) != (uint32_t)RESET))
 694:Drivers/STM32F7xx_HAL_Driver/Src/stm32f7xx_hal_rtc_ex.c ****     {
 695:Drivers/STM32F7xx_HAL_Driver/Src/stm32f7xx_hal_rtc_ex.c ****       /* Tamper callback */
 696:Drivers/STM32F7xx_HAL_Driver/Src/stm32f7xx_hal_rtc_ex.c ****       HAL_RTCEx_Tamper1EventCallback(hrtc);
 697:Drivers/STM32F7xx_HAL_Driver/Src/stm32f7xx_hal_rtc_ex.c **** 
 698:Drivers/STM32F7xx_HAL_Driver/Src/stm32f7xx_hal_rtc_ex.c ****       /* Clear the Tamper interrupt pending bit */
 699:Drivers/STM32F7xx_HAL_Driver/Src/stm32f7xx_hal_rtc_ex.c ****       __HAL_RTC_TAMPER_CLEAR_FLAG(hrtc,RTC_FLAG_TAMP1F);
 700:Drivers/STM32F7xx_HAL_Driver/Src/stm32f7xx_hal_rtc_ex.c ****     }
 701:Drivers/STM32F7xx_HAL_Driver/Src/stm32f7xx_hal_rtc_ex.c ****   }
 702:Drivers/STM32F7xx_HAL_Driver/Src/stm32f7xx_hal_rtc_ex.c **** 
 703:Drivers/STM32F7xx_HAL_Driver/Src/stm32f7xx_hal_rtc_ex.c ****   /* Get the status of the Interrupt */
 704:Drivers/STM32F7xx_HAL_Driver/Src/stm32f7xx_hal_rtc_ex.c ****   if(__HAL_RTC_TAMPER_GET_FLAG(hrtc, RTC_FLAG_TAMP2F)== SET)
 705:Drivers/STM32F7xx_HAL_Driver/Src/stm32f7xx_hal_rtc_ex.c ****   {
 706:Drivers/STM32F7xx_HAL_Driver/Src/stm32f7xx_hal_rtc_ex.c ****     /* Get the TAMPER Interrupt enable bit and pending bit */
 707:Drivers/STM32F7xx_HAL_Driver/Src/stm32f7xx_hal_rtc_ex.c ****     if((((hrtc->Instance->TAMPCR & RTC_TAMPCR_TAMPIE)) != (uint32_t)RESET) || \
 708:Drivers/STM32F7xx_HAL_Driver/Src/stm32f7xx_hal_rtc_ex.c ****        (((hrtc->Instance->TAMPCR & RTC_TAMPCR_TAMP2IE)) != (uint32_t)RESET))
 709:Drivers/STM32F7xx_HAL_Driver/Src/stm32f7xx_hal_rtc_ex.c ****     {
 710:Drivers/STM32F7xx_HAL_Driver/Src/stm32f7xx_hal_rtc_ex.c ****       /* Tamper callback */
 711:Drivers/STM32F7xx_HAL_Driver/Src/stm32f7xx_hal_rtc_ex.c ****       HAL_RTCEx_Tamper2EventCallback(hrtc);
 712:Drivers/STM32F7xx_HAL_Driver/Src/stm32f7xx_hal_rtc_ex.c **** 
 713:Drivers/STM32F7xx_HAL_Driver/Src/stm32f7xx_hal_rtc_ex.c ****       /* Clear the Tamper interrupt pending bit */
 714:Drivers/STM32F7xx_HAL_Driver/Src/stm32f7xx_hal_rtc_ex.c ****       __HAL_RTC_TAMPER_CLEAR_FLAG(hrtc, RTC_FLAG_TAMP2F);
 715:Drivers/STM32F7xx_HAL_Driver/Src/stm32f7xx_hal_rtc_ex.c ****     }
 716:Drivers/STM32F7xx_HAL_Driver/Src/stm32f7xx_hal_rtc_ex.c ****   }
 717:Drivers/STM32F7xx_HAL_Driver/Src/stm32f7xx_hal_rtc_ex.c **** 
 718:Drivers/STM32F7xx_HAL_Driver/Src/stm32f7xx_hal_rtc_ex.c ****   /* Get the status of the Interrupt */
 719:Drivers/STM32F7xx_HAL_Driver/Src/stm32f7xx_hal_rtc_ex.c ****   if(__HAL_RTC_TAMPER_GET_FLAG(hrtc, RTC_FLAG_TAMP3F)== SET)
 720:Drivers/STM32F7xx_HAL_Driver/Src/stm32f7xx_hal_rtc_ex.c ****   {
 721:Drivers/STM32F7xx_HAL_Driver/Src/stm32f7xx_hal_rtc_ex.c ****     /* Get the TAMPER Interrupt enable bit and pending bit */
 722:Drivers/STM32F7xx_HAL_Driver/Src/stm32f7xx_hal_rtc_ex.c ****     if((((hrtc->Instance->TAMPCR & RTC_TAMPCR_TAMPIE)) != (uint32_t)RESET) || \
 723:Drivers/STM32F7xx_HAL_Driver/Src/stm32f7xx_hal_rtc_ex.c ****        (((hrtc->Instance->TAMPCR & RTC_TAMPCR_TAMP3IE)) != (uint32_t)RESET))
 724:Drivers/STM32F7xx_HAL_Driver/Src/stm32f7xx_hal_rtc_ex.c ****     {
 725:Drivers/STM32F7xx_HAL_Driver/Src/stm32f7xx_hal_rtc_ex.c ****       /* Tamper callback */
 726:Drivers/STM32F7xx_HAL_Driver/Src/stm32f7xx_hal_rtc_ex.c ****       HAL_RTCEx_Tamper3EventCallback(hrtc);
 727:Drivers/STM32F7xx_HAL_Driver/Src/stm32f7xx_hal_rtc_ex.c **** 
 728:Drivers/STM32F7xx_HAL_Driver/Src/stm32f7xx_hal_rtc_ex.c ****       /* Clear the Tamper interrupt pending bit */
 729:Drivers/STM32F7xx_HAL_Driver/Src/stm32f7xx_hal_rtc_ex.c ****       __HAL_RTC_TAMPER_CLEAR_FLAG(hrtc, RTC_FLAG_TAMP3F);
 730:Drivers/STM32F7xx_HAL_Driver/Src/stm32f7xx_hal_rtc_ex.c ****     }
ARM GAS  C:\Users\micha\AppData\Local\Temp\ccafMmKQ.s 			page 33


 731:Drivers/STM32F7xx_HAL_Driver/Src/stm32f7xx_hal_rtc_ex.c ****   }
 732:Drivers/STM32F7xx_HAL_Driver/Src/stm32f7xx_hal_rtc_ex.c ****   
 733:Drivers/STM32F7xx_HAL_Driver/Src/stm32f7xx_hal_rtc_ex.c ****   /* Clear the EXTI's Flag for RTC TimeStamp and Tamper */
 734:Drivers/STM32F7xx_HAL_Driver/Src/stm32f7xx_hal_rtc_ex.c ****   __HAL_RTC_TAMPER_TIMESTAMP_EXTI_CLEAR_FLAG();
 735:Drivers/STM32F7xx_HAL_Driver/Src/stm32f7xx_hal_rtc_ex.c **** 
 736:Drivers/STM32F7xx_HAL_Driver/Src/stm32f7xx_hal_rtc_ex.c ****   /* Change RTC state */
 737:Drivers/STM32F7xx_HAL_Driver/Src/stm32f7xx_hal_rtc_ex.c ****   hrtc->State = HAL_RTC_STATE_READY;
 738:Drivers/STM32F7xx_HAL_Driver/Src/stm32f7xx_hal_rtc_ex.c **** }
 739:Drivers/STM32F7xx_HAL_Driver/Src/stm32f7xx_hal_rtc_ex.c **** 
 740:Drivers/STM32F7xx_HAL_Driver/Src/stm32f7xx_hal_rtc_ex.c **** /**
 741:Drivers/STM32F7xx_HAL_Driver/Src/stm32f7xx_hal_rtc_ex.c ****   * @brief  TimeStamp callback. 
 742:Drivers/STM32F7xx_HAL_Driver/Src/stm32f7xx_hal_rtc_ex.c ****   * @param  hrtc pointer to a RTC_HandleTypeDef structure that contains
 743:Drivers/STM32F7xx_HAL_Driver/Src/stm32f7xx_hal_rtc_ex.c ****   *                the configuration information for RTC.
 744:Drivers/STM32F7xx_HAL_Driver/Src/stm32f7xx_hal_rtc_ex.c ****   * @retval None
 745:Drivers/STM32F7xx_HAL_Driver/Src/stm32f7xx_hal_rtc_ex.c ****   */
 746:Drivers/STM32F7xx_HAL_Driver/Src/stm32f7xx_hal_rtc_ex.c **** __weak void HAL_RTCEx_TimeStampEventCallback(RTC_HandleTypeDef *hrtc)
 747:Drivers/STM32F7xx_HAL_Driver/Src/stm32f7xx_hal_rtc_ex.c **** {
 1086              		.loc 1 747 0
 1087              		.cfi_startproc
 1088              		@ args = 0, pretend = 0, frame = 0
 1089              		@ frame_needed = 0, uses_anonymous_args = 0
 1090              		@ link register save eliminated.
 1091              	.LVL70:
 748:Drivers/STM32F7xx_HAL_Driver/Src/stm32f7xx_hal_rtc_ex.c ****   /* Prevent unused argument(s) compilation warning */
 749:Drivers/STM32F7xx_HAL_Driver/Src/stm32f7xx_hal_rtc_ex.c ****   UNUSED(hrtc);
 750:Drivers/STM32F7xx_HAL_Driver/Src/stm32f7xx_hal_rtc_ex.c ****   
 751:Drivers/STM32F7xx_HAL_Driver/Src/stm32f7xx_hal_rtc_ex.c ****   /* NOTE : This function Should not be modified, when the callback is needed,
 752:Drivers/STM32F7xx_HAL_Driver/Src/stm32f7xx_hal_rtc_ex.c ****             the HAL_RTC_TimeStampEventCallback could be implemented in the user file
 753:Drivers/STM32F7xx_HAL_Driver/Src/stm32f7xx_hal_rtc_ex.c ****   */
 754:Drivers/STM32F7xx_HAL_Driver/Src/stm32f7xx_hal_rtc_ex.c **** }
 1092              		.loc 1 754 0
 1093 0000 7047     		bx	lr
 1094              		.cfi_endproc
 1095              	.LFE148:
 1097              		.section	.text.HAL_RTCEx_Tamper1EventCallback,"ax",%progbits
 1098              		.align	1
 1099              		.weak	HAL_RTCEx_Tamper1EventCallback
 1100              		.syntax unified
 1101              		.thumb
 1102              		.thumb_func
 1103              		.fpu fpv5-sp-d16
 1105              	HAL_RTCEx_Tamper1EventCallback:
 1106              	.LFB149:
 755:Drivers/STM32F7xx_HAL_Driver/Src/stm32f7xx_hal_rtc_ex.c **** 
 756:Drivers/STM32F7xx_HAL_Driver/Src/stm32f7xx_hal_rtc_ex.c **** /**
 757:Drivers/STM32F7xx_HAL_Driver/Src/stm32f7xx_hal_rtc_ex.c ****   * @brief  Tamper 1 callback. 
 758:Drivers/STM32F7xx_HAL_Driver/Src/stm32f7xx_hal_rtc_ex.c ****   * @param  hrtc pointer to a RTC_HandleTypeDef structure that contains
 759:Drivers/STM32F7xx_HAL_Driver/Src/stm32f7xx_hal_rtc_ex.c ****   *                the configuration information for RTC.
 760:Drivers/STM32F7xx_HAL_Driver/Src/stm32f7xx_hal_rtc_ex.c ****   * @retval None
 761:Drivers/STM32F7xx_HAL_Driver/Src/stm32f7xx_hal_rtc_ex.c ****   */
 762:Drivers/STM32F7xx_HAL_Driver/Src/stm32f7xx_hal_rtc_ex.c **** __weak void HAL_RTCEx_Tamper1EventCallback(RTC_HandleTypeDef *hrtc)
 763:Drivers/STM32F7xx_HAL_Driver/Src/stm32f7xx_hal_rtc_ex.c **** {
 1107              		.loc 1 763 0
 1108              		.cfi_startproc
 1109              		@ args = 0, pretend = 0, frame = 0
 1110              		@ frame_needed = 0, uses_anonymous_args = 0
 1111              		@ link register save eliminated.
ARM GAS  C:\Users\micha\AppData\Local\Temp\ccafMmKQ.s 			page 34


 1112              	.LVL71:
 764:Drivers/STM32F7xx_HAL_Driver/Src/stm32f7xx_hal_rtc_ex.c ****   /* Prevent unused argument(s) compilation warning */
 765:Drivers/STM32F7xx_HAL_Driver/Src/stm32f7xx_hal_rtc_ex.c ****   UNUSED(hrtc);
 766:Drivers/STM32F7xx_HAL_Driver/Src/stm32f7xx_hal_rtc_ex.c ****   
 767:Drivers/STM32F7xx_HAL_Driver/Src/stm32f7xx_hal_rtc_ex.c ****   /* NOTE : This function Should not be modified, when the callback is needed,
 768:Drivers/STM32F7xx_HAL_Driver/Src/stm32f7xx_hal_rtc_ex.c ****             the HAL_RTC_Tamper1EventCallback could be implemented in the user file
 769:Drivers/STM32F7xx_HAL_Driver/Src/stm32f7xx_hal_rtc_ex.c ****    */
 770:Drivers/STM32F7xx_HAL_Driver/Src/stm32f7xx_hal_rtc_ex.c **** }
 1113              		.loc 1 770 0
 1114 0000 7047     		bx	lr
 1115              		.cfi_endproc
 1116              	.LFE149:
 1118              		.section	.text.HAL_RTCEx_Tamper2EventCallback,"ax",%progbits
 1119              		.align	1
 1120              		.weak	HAL_RTCEx_Tamper2EventCallback
 1121              		.syntax unified
 1122              		.thumb
 1123              		.thumb_func
 1124              		.fpu fpv5-sp-d16
 1126              	HAL_RTCEx_Tamper2EventCallback:
 1127              	.LFB150:
 771:Drivers/STM32F7xx_HAL_Driver/Src/stm32f7xx_hal_rtc_ex.c **** 
 772:Drivers/STM32F7xx_HAL_Driver/Src/stm32f7xx_hal_rtc_ex.c **** /**
 773:Drivers/STM32F7xx_HAL_Driver/Src/stm32f7xx_hal_rtc_ex.c ****   * @brief  Tamper 2 callback. 
 774:Drivers/STM32F7xx_HAL_Driver/Src/stm32f7xx_hal_rtc_ex.c ****   * @param  hrtc pointer to a RTC_HandleTypeDef structure that contains
 775:Drivers/STM32F7xx_HAL_Driver/Src/stm32f7xx_hal_rtc_ex.c ****   *                the configuration information for RTC.
 776:Drivers/STM32F7xx_HAL_Driver/Src/stm32f7xx_hal_rtc_ex.c ****   * @retval None
 777:Drivers/STM32F7xx_HAL_Driver/Src/stm32f7xx_hal_rtc_ex.c ****   */
 778:Drivers/STM32F7xx_HAL_Driver/Src/stm32f7xx_hal_rtc_ex.c **** __weak void HAL_RTCEx_Tamper2EventCallback(RTC_HandleTypeDef *hrtc)
 779:Drivers/STM32F7xx_HAL_Driver/Src/stm32f7xx_hal_rtc_ex.c **** {
 1128              		.loc 1 779 0
 1129              		.cfi_startproc
 1130              		@ args = 0, pretend = 0, frame = 0
 1131              		@ frame_needed = 0, uses_anonymous_args = 0
 1132              		@ link register save eliminated.
 1133              	.LVL72:
 780:Drivers/STM32F7xx_HAL_Driver/Src/stm32f7xx_hal_rtc_ex.c ****   /* Prevent unused argument(s) compilation warning */
 781:Drivers/STM32F7xx_HAL_Driver/Src/stm32f7xx_hal_rtc_ex.c ****   UNUSED(hrtc);
 782:Drivers/STM32F7xx_HAL_Driver/Src/stm32f7xx_hal_rtc_ex.c ****   
 783:Drivers/STM32F7xx_HAL_Driver/Src/stm32f7xx_hal_rtc_ex.c ****   /* NOTE : This function Should not be modified, when the callback is needed,
 784:Drivers/STM32F7xx_HAL_Driver/Src/stm32f7xx_hal_rtc_ex.c ****             the HAL_RTC_Tamper2EventCallback could be implemented in the user file
 785:Drivers/STM32F7xx_HAL_Driver/Src/stm32f7xx_hal_rtc_ex.c ****    */
 786:Drivers/STM32F7xx_HAL_Driver/Src/stm32f7xx_hal_rtc_ex.c **** }
 1134              		.loc 1 786 0
 1135 0000 7047     		bx	lr
 1136              		.cfi_endproc
 1137              	.LFE150:
 1139              		.section	.text.HAL_RTCEx_Tamper3EventCallback,"ax",%progbits
 1140              		.align	1
 1141              		.weak	HAL_RTCEx_Tamper3EventCallback
 1142              		.syntax unified
 1143              		.thumb
 1144              		.thumb_func
 1145              		.fpu fpv5-sp-d16
 1147              	HAL_RTCEx_Tamper3EventCallback:
 1148              	.LFB151:
 787:Drivers/STM32F7xx_HAL_Driver/Src/stm32f7xx_hal_rtc_ex.c **** 
ARM GAS  C:\Users\micha\AppData\Local\Temp\ccafMmKQ.s 			page 35


 788:Drivers/STM32F7xx_HAL_Driver/Src/stm32f7xx_hal_rtc_ex.c **** /**
 789:Drivers/STM32F7xx_HAL_Driver/Src/stm32f7xx_hal_rtc_ex.c ****   * @brief  Tamper 3 callback. 
 790:Drivers/STM32F7xx_HAL_Driver/Src/stm32f7xx_hal_rtc_ex.c ****   * @param  hrtc RTC handle
 791:Drivers/STM32F7xx_HAL_Driver/Src/stm32f7xx_hal_rtc_ex.c ****   * @retval None
 792:Drivers/STM32F7xx_HAL_Driver/Src/stm32f7xx_hal_rtc_ex.c ****   */
 793:Drivers/STM32F7xx_HAL_Driver/Src/stm32f7xx_hal_rtc_ex.c **** __weak void HAL_RTCEx_Tamper3EventCallback(RTC_HandleTypeDef *hrtc)
 794:Drivers/STM32F7xx_HAL_Driver/Src/stm32f7xx_hal_rtc_ex.c **** {
 1149              		.loc 1 794 0
 1150              		.cfi_startproc
 1151              		@ args = 0, pretend = 0, frame = 0
 1152              		@ frame_needed = 0, uses_anonymous_args = 0
 1153              		@ link register save eliminated.
 1154              	.LVL73:
 795:Drivers/STM32F7xx_HAL_Driver/Src/stm32f7xx_hal_rtc_ex.c ****   /* Prevent unused argument(s) compilation warning */
 796:Drivers/STM32F7xx_HAL_Driver/Src/stm32f7xx_hal_rtc_ex.c ****   UNUSED(hrtc);
 797:Drivers/STM32F7xx_HAL_Driver/Src/stm32f7xx_hal_rtc_ex.c ****   
 798:Drivers/STM32F7xx_HAL_Driver/Src/stm32f7xx_hal_rtc_ex.c ****   /* NOTE : This function Should not be modified, when the callback is needed,
 799:Drivers/STM32F7xx_HAL_Driver/Src/stm32f7xx_hal_rtc_ex.c ****             the HAL_RTCEx_Tamper3EventCallback could be implemented in the user file
 800:Drivers/STM32F7xx_HAL_Driver/Src/stm32f7xx_hal_rtc_ex.c ****    */
 801:Drivers/STM32F7xx_HAL_Driver/Src/stm32f7xx_hal_rtc_ex.c **** }
 1155              		.loc 1 801 0
 1156 0000 7047     		bx	lr
 1157              		.cfi_endproc
 1158              	.LFE151:
 1160              		.section	.text.HAL_RTCEx_TamperTimeStampIRQHandler,"ax",%progbits
 1161              		.align	1
 1162              		.global	HAL_RTCEx_TamperTimeStampIRQHandler
 1163              		.syntax unified
 1164              		.thumb
 1165              		.thumb_func
 1166              		.fpu fpv5-sp-d16
 1168              	HAL_RTCEx_TamperTimeStampIRQHandler:
 1169              	.LFB147:
 674:Drivers/STM32F7xx_HAL_Driver/Src/stm32f7xx_hal_rtc_ex.c ****   if(__HAL_RTC_TIMESTAMP_GET_IT(hrtc, RTC_IT_TS))
 1170              		.loc 1 674 0
 1171              		.cfi_startproc
 1172              		@ args = 0, pretend = 0, frame = 0
 1173              		@ frame_needed = 0, uses_anonymous_args = 0
 1174              	.LVL74:
 1175 0000 10B5     		push	{r4, lr}
 1176              	.LCFI17:
 1177              		.cfi_def_cfa_offset 8
 1178              		.cfi_offset 4, -8
 1179              		.cfi_offset 14, -4
 1180 0002 0446     		mov	r4, r0
 675:Drivers/STM32F7xx_HAL_Driver/Src/stm32f7xx_hal_rtc_ex.c ****   {
 1181              		.loc 1 675 0
 1182 0004 0368     		ldr	r3, [r0]
 1183 0006 DA68     		ldr	r2, [r3, #12]
 1184 0008 12F4006F 		tst	r2, #2048
 1185 000c 03D0     		beq	.L86
 678:Drivers/STM32F7xx_HAL_Driver/Src/stm32f7xx_hal_rtc_ex.c ****     {
 1186              		.loc 1 678 0
 1187 000e 9B68     		ldr	r3, [r3, #8]
 1188 0010 13F4004F 		tst	r3, #32768
 1189 0014 4ED1     		bne	.L94
 1190              	.LVL75:
ARM GAS  C:\Users\micha\AppData\Local\Temp\ccafMmKQ.s 			page 36


 1191              	.L86:
 689:Drivers/STM32F7xx_HAL_Driver/Src/stm32f7xx_hal_rtc_ex.c ****   {
 1192              		.loc 1 689 0
 1193 0016 2368     		ldr	r3, [r4]
 1194 0018 DA68     		ldr	r2, [r3, #12]
 1195 001a 12F4005F 		tst	r2, #8192
 1196 001e 10D0     		beq	.L87
 692:Drivers/STM32F7xx_HAL_Driver/Src/stm32f7xx_hal_rtc_ex.c ****        (((hrtc->Instance->TAMPCR & RTC_TAMPCR_TAMP1IE)) != (uint32_t)RESET))
 1197              		.loc 1 692 0
 1198 0020 1A6C     		ldr	r2, [r3, #64]
 1199 0022 12F0040F 		tst	r2, #4
 1200 0026 03D1     		bne	.L88
 693:Drivers/STM32F7xx_HAL_Driver/Src/stm32f7xx_hal_rtc_ex.c ****     {
 1201              		.loc 1 693 0 discriminator 1
 1202 0028 1B6C     		ldr	r3, [r3, #64]
 692:Drivers/STM32F7xx_HAL_Driver/Src/stm32f7xx_hal_rtc_ex.c ****        (((hrtc->Instance->TAMPCR & RTC_TAMPCR_TAMP1IE)) != (uint32_t)RESET))
 1203              		.loc 1 692 0 discriminator 1
 1204 002a 13F4803F 		tst	r3, #65536
 1205 002e 08D0     		beq	.L87
 1206              	.L88:
 696:Drivers/STM32F7xx_HAL_Driver/Src/stm32f7xx_hal_rtc_ex.c **** 
 1207              		.loc 1 696 0
 1208 0030 2046     		mov	r0, r4
 1209 0032 FFF7FEFF 		bl	HAL_RTCEx_Tamper1EventCallback
 1210              	.LVL76:
 699:Drivers/STM32F7xx_HAL_Driver/Src/stm32f7xx_hal_rtc_ex.c ****     }
 1211              		.loc 1 699 0
 1212 0036 2268     		ldr	r2, [r4]
 1213 0038 D368     		ldr	r3, [r2, #12]
 1214 003a DBB2     		uxtb	r3, r3
 1215 003c 63F40253 		orn	r3, r3, #8320
 1216 0040 D360     		str	r3, [r2, #12]
 1217              	.L87:
 704:Drivers/STM32F7xx_HAL_Driver/Src/stm32f7xx_hal_rtc_ex.c ****   {
 1218              		.loc 1 704 0
 1219 0042 2368     		ldr	r3, [r4]
 1220 0044 DA68     		ldr	r2, [r3, #12]
 1221 0046 12F4804F 		tst	r2, #16384
 1222 004a 10D0     		beq	.L89
 707:Drivers/STM32F7xx_HAL_Driver/Src/stm32f7xx_hal_rtc_ex.c ****        (((hrtc->Instance->TAMPCR & RTC_TAMPCR_TAMP2IE)) != (uint32_t)RESET))
 1223              		.loc 1 707 0
 1224 004c 1A6C     		ldr	r2, [r3, #64]
 1225 004e 12F0040F 		tst	r2, #4
 1226 0052 03D1     		bne	.L90
 708:Drivers/STM32F7xx_HAL_Driver/Src/stm32f7xx_hal_rtc_ex.c ****     {
 1227              		.loc 1 708 0 discriminator 1
 1228 0054 1B6C     		ldr	r3, [r3, #64]
 707:Drivers/STM32F7xx_HAL_Driver/Src/stm32f7xx_hal_rtc_ex.c ****        (((hrtc->Instance->TAMPCR & RTC_TAMPCR_TAMP2IE)) != (uint32_t)RESET))
 1229              		.loc 1 707 0 discriminator 1
 1230 0056 13F4002F 		tst	r3, #524288
 1231 005a 08D0     		beq	.L89
 1232              	.L90:
 711:Drivers/STM32F7xx_HAL_Driver/Src/stm32f7xx_hal_rtc_ex.c **** 
 1233              		.loc 1 711 0
 1234 005c 2046     		mov	r0, r4
 1235 005e FFF7FEFF 		bl	HAL_RTCEx_Tamper2EventCallback
 1236              	.LVL77:
ARM GAS  C:\Users\micha\AppData\Local\Temp\ccafMmKQ.s 			page 37


 714:Drivers/STM32F7xx_HAL_Driver/Src/stm32f7xx_hal_rtc_ex.c ****     }
 1237              		.loc 1 714 0
 1238 0062 2268     		ldr	r2, [r4]
 1239 0064 D368     		ldr	r3, [r2, #12]
 1240 0066 DBB2     		uxtb	r3, r3
 1241 0068 63F48143 		orn	r3, r3, #16512
 1242 006c D360     		str	r3, [r2, #12]
 1243              	.L89:
 719:Drivers/STM32F7xx_HAL_Driver/Src/stm32f7xx_hal_rtc_ex.c ****   {
 1244              		.loc 1 719 0
 1245 006e 2368     		ldr	r3, [r4]
 1246 0070 DA68     		ldr	r2, [r3, #12]
 1247 0072 12F4004F 		tst	r2, #32768
 1248 0076 16D0     		beq	.L91
 722:Drivers/STM32F7xx_HAL_Driver/Src/stm32f7xx_hal_rtc_ex.c ****        (((hrtc->Instance->TAMPCR & RTC_TAMPCR_TAMP3IE)) != (uint32_t)RESET))
 1249              		.loc 1 722 0
 1250 0078 1A6C     		ldr	r2, [r3, #64]
 1251 007a 12F0040F 		tst	r2, #4
 1252 007e 03D1     		bne	.L92
 723:Drivers/STM32F7xx_HAL_Driver/Src/stm32f7xx_hal_rtc_ex.c ****     {
 1253              		.loc 1 723 0 discriminator 1
 1254 0080 1B6C     		ldr	r3, [r3, #64]
 722:Drivers/STM32F7xx_HAL_Driver/Src/stm32f7xx_hal_rtc_ex.c ****        (((hrtc->Instance->TAMPCR & RTC_TAMPCR_TAMP3IE)) != (uint32_t)RESET))
 1255              		.loc 1 722 0 discriminator 1
 1256 0082 13F4800F 		tst	r3, #4194304
 1257 0086 0ED0     		beq	.L91
 1258              	.L92:
 726:Drivers/STM32F7xx_HAL_Driver/Src/stm32f7xx_hal_rtc_ex.c **** 
 1259              		.loc 1 726 0
 1260 0088 2046     		mov	r0, r4
 1261 008a FFF7FEFF 		bl	HAL_RTCEx_Tamper3EventCallback
 1262              	.LVL78:
 729:Drivers/STM32F7xx_HAL_Driver/Src/stm32f7xx_hal_rtc_ex.c ****     }
 1263              		.loc 1 729 0
 1264 008e 2268     		ldr	r2, [r4]
 1265 0090 D368     		ldr	r3, [r2, #12]
 1266 0092 DBB2     		uxtb	r3, r3
 1267 0094 43F07F43 		orr	r3, r3, #-16777216
 1268 0098 43F47F03 		orr	r3, r3, #16711680
 1269 009c 43F4FE43 		orr	r3, r3, #32512
 1270 00a0 43F07F03 		orr	r3, r3, #127
 1271 00a4 D360     		str	r3, [r2, #12]
 1272              	.L91:
 734:Drivers/STM32F7xx_HAL_Driver/Src/stm32f7xx_hal_rtc_ex.c **** 
 1273              		.loc 1 734 0
 1274 00a6 084B     		ldr	r3, .L95
 1275 00a8 4FF40012 		mov	r2, #2097152
 1276 00ac 5A61     		str	r2, [r3, #20]
 737:Drivers/STM32F7xx_HAL_Driver/Src/stm32f7xx_hal_rtc_ex.c **** }
 1277              		.loc 1 737 0
 1278 00ae 0123     		movs	r3, #1
 1279 00b0 6377     		strb	r3, [r4, #29]
 738:Drivers/STM32F7xx_HAL_Driver/Src/stm32f7xx_hal_rtc_ex.c **** 
 1280              		.loc 1 738 0
 1281 00b2 10BD     		pop	{r4, pc}
 1282              	.LVL79:
 1283              	.L94:
ARM GAS  C:\Users\micha\AppData\Local\Temp\ccafMmKQ.s 			page 38


 681:Drivers/STM32F7xx_HAL_Driver/Src/stm32f7xx_hal_rtc_ex.c **** 
 1284              		.loc 1 681 0
 1285 00b4 FFF7FEFF 		bl	HAL_RTCEx_TimeStampEventCallback
 1286              	.LVL80:
 684:Drivers/STM32F7xx_HAL_Driver/Src/stm32f7xx_hal_rtc_ex.c ****     }
 1287              		.loc 1 684 0
 1288 00b8 2268     		ldr	r2, [r4]
 1289 00ba D368     		ldr	r3, [r2, #12]
 1290 00bc DBB2     		uxtb	r3, r3
 1291 00be 63F40863 		orn	r3, r3, #2176
 1292 00c2 D360     		str	r3, [r2, #12]
 1293 00c4 A7E7     		b	.L86
 1294              	.L96:
 1295 00c6 00BF     		.align	2
 1296              	.L95:
 1297 00c8 003C0140 		.word	1073822720
 1298              		.cfi_endproc
 1299              	.LFE147:
 1301              		.section	.text.HAL_RTCEx_PollForTimeStampEvent,"ax",%progbits
 1302              		.align	1
 1303              		.global	HAL_RTCEx_PollForTimeStampEvent
 1304              		.syntax unified
 1305              		.thumb
 1306              		.thumb_func
 1307              		.fpu fpv5-sp-d16
 1309              	HAL_RTCEx_PollForTimeStampEvent:
 1310              	.LFB152:
 802:Drivers/STM32F7xx_HAL_Driver/Src/stm32f7xx_hal_rtc_ex.c **** 
 803:Drivers/STM32F7xx_HAL_Driver/Src/stm32f7xx_hal_rtc_ex.c **** /**
 804:Drivers/STM32F7xx_HAL_Driver/Src/stm32f7xx_hal_rtc_ex.c ****   * @brief  This function handles TimeStamp polling request.
 805:Drivers/STM32F7xx_HAL_Driver/Src/stm32f7xx_hal_rtc_ex.c ****   * @param  hrtc pointer to a RTC_HandleTypeDef structure that contains
 806:Drivers/STM32F7xx_HAL_Driver/Src/stm32f7xx_hal_rtc_ex.c ****   *                the configuration information for RTC.
 807:Drivers/STM32F7xx_HAL_Driver/Src/stm32f7xx_hal_rtc_ex.c ****   * @param  Timeout Timeout duration
 808:Drivers/STM32F7xx_HAL_Driver/Src/stm32f7xx_hal_rtc_ex.c ****   * @retval HAL status
 809:Drivers/STM32F7xx_HAL_Driver/Src/stm32f7xx_hal_rtc_ex.c ****   */
 810:Drivers/STM32F7xx_HAL_Driver/Src/stm32f7xx_hal_rtc_ex.c **** HAL_StatusTypeDef HAL_RTCEx_PollForTimeStampEvent(RTC_HandleTypeDef *hrtc, uint32_t Timeout)
 811:Drivers/STM32F7xx_HAL_Driver/Src/stm32f7xx_hal_rtc_ex.c **** { 
 1311              		.loc 1 811 0
 1312              		.cfi_startproc
 1313              		@ args = 0, pretend = 0, frame = 0
 1314              		@ frame_needed = 0, uses_anonymous_args = 0
 1315              	.LVL81:
 1316 0000 70B5     		push	{r4, r5, r6, lr}
 1317              	.LCFI18:
 1318              		.cfi_def_cfa_offset 16
 1319              		.cfi_offset 4, -16
 1320              		.cfi_offset 5, -12
 1321              		.cfi_offset 6, -8
 1322              		.cfi_offset 14, -4
 1323 0002 0446     		mov	r4, r0
 1324 0004 0D46     		mov	r5, r1
 1325              	.LVL82:
 812:Drivers/STM32F7xx_HAL_Driver/Src/stm32f7xx_hal_rtc_ex.c ****   uint32_t tickstart = 0; 
 813:Drivers/STM32F7xx_HAL_Driver/Src/stm32f7xx_hal_rtc_ex.c **** 
 814:Drivers/STM32F7xx_HAL_Driver/Src/stm32f7xx_hal_rtc_ex.c ****   /* Get tick */
 815:Drivers/STM32F7xx_HAL_Driver/Src/stm32f7xx_hal_rtc_ex.c ****   tickstart = HAL_GetTick();
 1326              		.loc 1 815 0
ARM GAS  C:\Users\micha\AppData\Local\Temp\ccafMmKQ.s 			page 39


 1327 0006 FFF7FEFF 		bl	HAL_GetTick
 1328              	.LVL83:
 1329 000a 0646     		mov	r6, r0
 1330              	.LVL84:
 1331              	.L99:
 816:Drivers/STM32F7xx_HAL_Driver/Src/stm32f7xx_hal_rtc_ex.c **** 
 817:Drivers/STM32F7xx_HAL_Driver/Src/stm32f7xx_hal_rtc_ex.c ****   while(__HAL_RTC_TIMESTAMP_GET_FLAG(hrtc, RTC_FLAG_TSF) == RESET)
 1332              		.loc 1 817 0
 1333 000c 2368     		ldr	r3, [r4]
 1334 000e DA68     		ldr	r2, [r3, #12]
 1335 0010 12F4006F 		tst	r2, #2048
 1336 0014 0BD1     		bne	.L105
 818:Drivers/STM32F7xx_HAL_Driver/Src/stm32f7xx_hal_rtc_ex.c ****   {	        
 819:Drivers/STM32F7xx_HAL_Driver/Src/stm32f7xx_hal_rtc_ex.c ****     if(Timeout != HAL_MAX_DELAY)
 1337              		.loc 1 819 0
 1338 0016 B5F1FF3F 		cmp	r5, #-1
 1339 001a F7D0     		beq	.L99
 820:Drivers/STM32F7xx_HAL_Driver/Src/stm32f7xx_hal_rtc_ex.c ****     {
 821:Drivers/STM32F7xx_HAL_Driver/Src/stm32f7xx_hal_rtc_ex.c ****       if((Timeout == 0)||((HAL_GetTick() - tickstart ) > Timeout))
 1340              		.loc 1 821 0
 1341 001c 25B1     		cbz	r5, .L100
 1342              		.loc 1 821 0 is_stmt 0 discriminator 1
 1343 001e FFF7FEFF 		bl	HAL_GetTick
 1344              	.LVL85:
 1345 0022 801B     		subs	r0, r0, r6
 1346 0024 A842     		cmp	r0, r5
 1347 0026 F1D9     		bls	.L99
 1348              	.L100:
 822:Drivers/STM32F7xx_HAL_Driver/Src/stm32f7xx_hal_rtc_ex.c ****       {
 823:Drivers/STM32F7xx_HAL_Driver/Src/stm32f7xx_hal_rtc_ex.c ****         hrtc->State = HAL_RTC_STATE_TIMEOUT;
 1349              		.loc 1 823 0 is_stmt 1
 1350 0028 0320     		movs	r0, #3
 1351 002a 6077     		strb	r0, [r4, #29]
 824:Drivers/STM32F7xx_HAL_Driver/Src/stm32f7xx_hal_rtc_ex.c ****         return HAL_TIMEOUT;
 1352              		.loc 1 824 0
 1353 002c 06E0     		b	.L101
 1354              	.L105:
 825:Drivers/STM32F7xx_HAL_Driver/Src/stm32f7xx_hal_rtc_ex.c ****       }
 826:Drivers/STM32F7xx_HAL_Driver/Src/stm32f7xx_hal_rtc_ex.c ****     }
 827:Drivers/STM32F7xx_HAL_Driver/Src/stm32f7xx_hal_rtc_ex.c ****   }
 828:Drivers/STM32F7xx_HAL_Driver/Src/stm32f7xx_hal_rtc_ex.c **** 	
 829:Drivers/STM32F7xx_HAL_Driver/Src/stm32f7xx_hal_rtc_ex.c ****   if(__HAL_RTC_TIMESTAMP_GET_FLAG(hrtc, RTC_FLAG_TSOVF) != RESET)
 1355              		.loc 1 829 0
 1356 002e DA68     		ldr	r2, [r3, #12]
 1357 0030 12F4805F 		tst	r2, #4096
 1358 0034 03D1     		bne	.L106
 830:Drivers/STM32F7xx_HAL_Driver/Src/stm32f7xx_hal_rtc_ex.c ****   {
 831:Drivers/STM32F7xx_HAL_Driver/Src/stm32f7xx_hal_rtc_ex.c ****     /* Clear the TIMESTAMP OverRun Flag */
 832:Drivers/STM32F7xx_HAL_Driver/Src/stm32f7xx_hal_rtc_ex.c ****     __HAL_RTC_TIMESTAMP_CLEAR_FLAG(hrtc, RTC_FLAG_TSOVF);
 833:Drivers/STM32F7xx_HAL_Driver/Src/stm32f7xx_hal_rtc_ex.c ****       
 834:Drivers/STM32F7xx_HAL_Driver/Src/stm32f7xx_hal_rtc_ex.c ****     /* Change TIMESTAMP state */
 835:Drivers/STM32F7xx_HAL_Driver/Src/stm32f7xx_hal_rtc_ex.c ****     hrtc->State = HAL_RTC_STATE_ERROR; 
 836:Drivers/STM32F7xx_HAL_Driver/Src/stm32f7xx_hal_rtc_ex.c ****       
 837:Drivers/STM32F7xx_HAL_Driver/Src/stm32f7xx_hal_rtc_ex.c ****     return HAL_ERROR; 
 838:Drivers/STM32F7xx_HAL_Driver/Src/stm32f7xx_hal_rtc_ex.c ****    }
 839:Drivers/STM32F7xx_HAL_Driver/Src/stm32f7xx_hal_rtc_ex.c **** 	
 840:Drivers/STM32F7xx_HAL_Driver/Src/stm32f7xx_hal_rtc_ex.c ****   /* Change RTC state */
ARM GAS  C:\Users\micha\AppData\Local\Temp\ccafMmKQ.s 			page 40


 841:Drivers/STM32F7xx_HAL_Driver/Src/stm32f7xx_hal_rtc_ex.c ****   hrtc->State = HAL_RTC_STATE_READY; 
 1359              		.loc 1 841 0
 1360 0036 0123     		movs	r3, #1
 1361 0038 6377     		strb	r3, [r4, #29]
 842:Drivers/STM32F7xx_HAL_Driver/Src/stm32f7xx_hal_rtc_ex.c ****   
 843:Drivers/STM32F7xx_HAL_Driver/Src/stm32f7xx_hal_rtc_ex.c ****   return HAL_OK; 
 1362              		.loc 1 843 0
 1363 003a 0020     		movs	r0, #0
 1364              	.L101:
 844:Drivers/STM32F7xx_HAL_Driver/Src/stm32f7xx_hal_rtc_ex.c **** }
 1365              		.loc 1 844 0
 1366 003c 70BD     		pop	{r4, r5, r6, pc}
 1367              	.LVL86:
 1368              	.L106:
 832:Drivers/STM32F7xx_HAL_Driver/Src/stm32f7xx_hal_rtc_ex.c ****       
 1369              		.loc 1 832 0
 1370 003e DA68     		ldr	r2, [r3, #12]
 1371 0040 D2B2     		uxtb	r2, r2
 1372 0042 62F48452 		orn	r2, r2, #4224
 1373 0046 DA60     		str	r2, [r3, #12]
 835:Drivers/STM32F7xx_HAL_Driver/Src/stm32f7xx_hal_rtc_ex.c ****       
 1374              		.loc 1 835 0
 1375 0048 0423     		movs	r3, #4
 1376 004a 6377     		strb	r3, [r4, #29]
 837:Drivers/STM32F7xx_HAL_Driver/Src/stm32f7xx_hal_rtc_ex.c ****    }
 1377              		.loc 1 837 0
 1378 004c 0120     		movs	r0, #1
 1379 004e F5E7     		b	.L101
 1380              		.cfi_endproc
 1381              	.LFE152:
 1383              		.section	.text.HAL_RTCEx_PollForTamper1Event,"ax",%progbits
 1384              		.align	1
 1385              		.global	HAL_RTCEx_PollForTamper1Event
 1386              		.syntax unified
 1387              		.thumb
 1388              		.thumb_func
 1389              		.fpu fpv5-sp-d16
 1391              	HAL_RTCEx_PollForTamper1Event:
 1392              	.LFB153:
 845:Drivers/STM32F7xx_HAL_Driver/Src/stm32f7xx_hal_rtc_ex.c ****   
 846:Drivers/STM32F7xx_HAL_Driver/Src/stm32f7xx_hal_rtc_ex.c **** /**
 847:Drivers/STM32F7xx_HAL_Driver/Src/stm32f7xx_hal_rtc_ex.c ****   * @brief  This function handles Tamper1 Polling.
 848:Drivers/STM32F7xx_HAL_Driver/Src/stm32f7xx_hal_rtc_ex.c ****   * @param  hrtc pointer to a RTC_HandleTypeDef structure that contains
 849:Drivers/STM32F7xx_HAL_Driver/Src/stm32f7xx_hal_rtc_ex.c ****   *                the configuration information for RTC.
 850:Drivers/STM32F7xx_HAL_Driver/Src/stm32f7xx_hal_rtc_ex.c ****   * @param  Timeout Timeout duration
 851:Drivers/STM32F7xx_HAL_Driver/Src/stm32f7xx_hal_rtc_ex.c ****   * @retval HAL status
 852:Drivers/STM32F7xx_HAL_Driver/Src/stm32f7xx_hal_rtc_ex.c ****   */
 853:Drivers/STM32F7xx_HAL_Driver/Src/stm32f7xx_hal_rtc_ex.c **** HAL_StatusTypeDef HAL_RTCEx_PollForTamper1Event(RTC_HandleTypeDef *hrtc, uint32_t Timeout)
 854:Drivers/STM32F7xx_HAL_Driver/Src/stm32f7xx_hal_rtc_ex.c **** {  
 1393              		.loc 1 854 0
 1394              		.cfi_startproc
 1395              		@ args = 0, pretend = 0, frame = 0
 1396              		@ frame_needed = 0, uses_anonymous_args = 0
 1397              	.LVL87:
 1398 0000 70B5     		push	{r4, r5, r6, lr}
 1399              	.LCFI19:
 1400              		.cfi_def_cfa_offset 16
ARM GAS  C:\Users\micha\AppData\Local\Temp\ccafMmKQ.s 			page 41


 1401              		.cfi_offset 4, -16
 1402              		.cfi_offset 5, -12
 1403              		.cfi_offset 6, -8
 1404              		.cfi_offset 14, -4
 1405 0002 0446     		mov	r4, r0
 1406 0004 0D46     		mov	r5, r1
 1407              	.LVL88:
 855:Drivers/STM32F7xx_HAL_Driver/Src/stm32f7xx_hal_rtc_ex.c ****   uint32_t tickstart = 0U; 
 856:Drivers/STM32F7xx_HAL_Driver/Src/stm32f7xx_hal_rtc_ex.c **** 
 857:Drivers/STM32F7xx_HAL_Driver/Src/stm32f7xx_hal_rtc_ex.c ****   /* Get tick */
 858:Drivers/STM32F7xx_HAL_Driver/Src/stm32f7xx_hal_rtc_ex.c ****   tickstart = HAL_GetTick();
 1408              		.loc 1 858 0
 1409 0006 FFF7FEFF 		bl	HAL_GetTick
 1410              	.LVL89:
 1411 000a 0646     		mov	r6, r0
 1412              	.LVL90:
 1413              	.L109:
 859:Drivers/STM32F7xx_HAL_Driver/Src/stm32f7xx_hal_rtc_ex.c ****   
 860:Drivers/STM32F7xx_HAL_Driver/Src/stm32f7xx_hal_rtc_ex.c ****   /* Get the status of the Interrupt */
 861:Drivers/STM32F7xx_HAL_Driver/Src/stm32f7xx_hal_rtc_ex.c ****   while(__HAL_RTC_TAMPER_GET_FLAG(hrtc, RTC_FLAG_TAMP1F)== RESET)
 1414              		.loc 1 861 0
 1415 000c 2368     		ldr	r3, [r4]
 1416 000e DA68     		ldr	r2, [r3, #12]
 1417 0010 12F4005F 		tst	r2, #8192
 1418 0014 0BD1     		bne	.L114
 862:Drivers/STM32F7xx_HAL_Driver/Src/stm32f7xx_hal_rtc_ex.c ****   {
 863:Drivers/STM32F7xx_HAL_Driver/Src/stm32f7xx_hal_rtc_ex.c ****     if(Timeout != HAL_MAX_DELAY)
 1419              		.loc 1 863 0
 1420 0016 B5F1FF3F 		cmp	r5, #-1
 1421 001a F7D0     		beq	.L109
 864:Drivers/STM32F7xx_HAL_Driver/Src/stm32f7xx_hal_rtc_ex.c ****     {
 865:Drivers/STM32F7xx_HAL_Driver/Src/stm32f7xx_hal_rtc_ex.c ****       if((Timeout == 0U)||((HAL_GetTick() - tickstart ) > Timeout))
 1422              		.loc 1 865 0
 1423 001c 25B1     		cbz	r5, .L110
 1424              		.loc 1 865 0 is_stmt 0 discriminator 1
 1425 001e FFF7FEFF 		bl	HAL_GetTick
 1426              	.LVL91:
 1427 0022 801B     		subs	r0, r0, r6
 1428 0024 A842     		cmp	r0, r5
 1429 0026 F1D9     		bls	.L109
 1430              	.L110:
 866:Drivers/STM32F7xx_HAL_Driver/Src/stm32f7xx_hal_rtc_ex.c ****       {
 867:Drivers/STM32F7xx_HAL_Driver/Src/stm32f7xx_hal_rtc_ex.c ****         hrtc->State = HAL_RTC_STATE_TIMEOUT;
 1431              		.loc 1 867 0 is_stmt 1
 1432 0028 0320     		movs	r0, #3
 1433 002a 6077     		strb	r0, [r4, #29]
 868:Drivers/STM32F7xx_HAL_Driver/Src/stm32f7xx_hal_rtc_ex.c ****         return HAL_TIMEOUT;
 1434              		.loc 1 868 0
 1435 002c 07E0     		b	.L111
 1436              	.L114:
 869:Drivers/STM32F7xx_HAL_Driver/Src/stm32f7xx_hal_rtc_ex.c ****       }
 870:Drivers/STM32F7xx_HAL_Driver/Src/stm32f7xx_hal_rtc_ex.c ****     }
 871:Drivers/STM32F7xx_HAL_Driver/Src/stm32f7xx_hal_rtc_ex.c ****   }
 872:Drivers/STM32F7xx_HAL_Driver/Src/stm32f7xx_hal_rtc_ex.c ****   
 873:Drivers/STM32F7xx_HAL_Driver/Src/stm32f7xx_hal_rtc_ex.c ****   /* Clear the Tamper Flag */
 874:Drivers/STM32F7xx_HAL_Driver/Src/stm32f7xx_hal_rtc_ex.c ****   __HAL_RTC_TAMPER_CLEAR_FLAG(hrtc,RTC_FLAG_TAMP1F);
 1437              		.loc 1 874 0
ARM GAS  C:\Users\micha\AppData\Local\Temp\ccafMmKQ.s 			page 42


 1438 002e DA68     		ldr	r2, [r3, #12]
 1439 0030 D2B2     		uxtb	r2, r2
 1440 0032 62F40252 		orn	r2, r2, #8320
 1441 0036 DA60     		str	r2, [r3, #12]
 875:Drivers/STM32F7xx_HAL_Driver/Src/stm32f7xx_hal_rtc_ex.c ****   
 876:Drivers/STM32F7xx_HAL_Driver/Src/stm32f7xx_hal_rtc_ex.c ****   /* Change RTC state */
 877:Drivers/STM32F7xx_HAL_Driver/Src/stm32f7xx_hal_rtc_ex.c ****   hrtc->State = HAL_RTC_STATE_READY;
 1442              		.loc 1 877 0
 1443 0038 0123     		movs	r3, #1
 1444 003a 6377     		strb	r3, [r4, #29]
 878:Drivers/STM32F7xx_HAL_Driver/Src/stm32f7xx_hal_rtc_ex.c ****   
 879:Drivers/STM32F7xx_HAL_Driver/Src/stm32f7xx_hal_rtc_ex.c ****   return HAL_OK; 
 1445              		.loc 1 879 0
 1446 003c 0020     		movs	r0, #0
 1447              	.L111:
 880:Drivers/STM32F7xx_HAL_Driver/Src/stm32f7xx_hal_rtc_ex.c **** }
 1448              		.loc 1 880 0
 1449 003e 70BD     		pop	{r4, r5, r6, pc}
 1450              		.cfi_endproc
 1451              	.LFE153:
 1453              		.section	.text.HAL_RTCEx_PollForTamper2Event,"ax",%progbits
 1454              		.align	1
 1455              		.global	HAL_RTCEx_PollForTamper2Event
 1456              		.syntax unified
 1457              		.thumb
 1458              		.thumb_func
 1459              		.fpu fpv5-sp-d16
 1461              	HAL_RTCEx_PollForTamper2Event:
 1462              	.LFB154:
 881:Drivers/STM32F7xx_HAL_Driver/Src/stm32f7xx_hal_rtc_ex.c **** 
 882:Drivers/STM32F7xx_HAL_Driver/Src/stm32f7xx_hal_rtc_ex.c **** /**
 883:Drivers/STM32F7xx_HAL_Driver/Src/stm32f7xx_hal_rtc_ex.c ****   * @brief  This function handles Tamper2 Polling.
 884:Drivers/STM32F7xx_HAL_Driver/Src/stm32f7xx_hal_rtc_ex.c ****   * @param  hrtc pointer to a RTC_HandleTypeDef structure that contains
 885:Drivers/STM32F7xx_HAL_Driver/Src/stm32f7xx_hal_rtc_ex.c ****   *                the configuration information for RTC.
 886:Drivers/STM32F7xx_HAL_Driver/Src/stm32f7xx_hal_rtc_ex.c ****   * @param  Timeout Timeout duration
 887:Drivers/STM32F7xx_HAL_Driver/Src/stm32f7xx_hal_rtc_ex.c ****   * @retval HAL status
 888:Drivers/STM32F7xx_HAL_Driver/Src/stm32f7xx_hal_rtc_ex.c ****   */
 889:Drivers/STM32F7xx_HAL_Driver/Src/stm32f7xx_hal_rtc_ex.c **** HAL_StatusTypeDef HAL_RTCEx_PollForTamper2Event(RTC_HandleTypeDef *hrtc, uint32_t Timeout)
 890:Drivers/STM32F7xx_HAL_Driver/Src/stm32f7xx_hal_rtc_ex.c **** {  
 1463              		.loc 1 890 0
 1464              		.cfi_startproc
 1465              		@ args = 0, pretend = 0, frame = 0
 1466              		@ frame_needed = 0, uses_anonymous_args = 0
 1467              	.LVL92:
 1468 0000 70B5     		push	{r4, r5, r6, lr}
 1469              	.LCFI20:
 1470              		.cfi_def_cfa_offset 16
 1471              		.cfi_offset 4, -16
 1472              		.cfi_offset 5, -12
 1473              		.cfi_offset 6, -8
 1474              		.cfi_offset 14, -4
 1475 0002 0446     		mov	r4, r0
 1476 0004 0D46     		mov	r5, r1
 1477              	.LVL93:
 891:Drivers/STM32F7xx_HAL_Driver/Src/stm32f7xx_hal_rtc_ex.c ****   uint32_t tickstart = 0; 
 892:Drivers/STM32F7xx_HAL_Driver/Src/stm32f7xx_hal_rtc_ex.c **** 
 893:Drivers/STM32F7xx_HAL_Driver/Src/stm32f7xx_hal_rtc_ex.c ****   /* Get tick */
ARM GAS  C:\Users\micha\AppData\Local\Temp\ccafMmKQ.s 			page 43


 894:Drivers/STM32F7xx_HAL_Driver/Src/stm32f7xx_hal_rtc_ex.c ****   tickstart = HAL_GetTick();
 1478              		.loc 1 894 0
 1479 0006 FFF7FEFF 		bl	HAL_GetTick
 1480              	.LVL94:
 1481 000a 0646     		mov	r6, r0
 1482              	.LVL95:
 1483              	.L117:
 895:Drivers/STM32F7xx_HAL_Driver/Src/stm32f7xx_hal_rtc_ex.c ****   
 896:Drivers/STM32F7xx_HAL_Driver/Src/stm32f7xx_hal_rtc_ex.c ****   /* Get the status of the Interrupt */
 897:Drivers/STM32F7xx_HAL_Driver/Src/stm32f7xx_hal_rtc_ex.c ****   while(__HAL_RTC_TAMPER_GET_FLAG(hrtc, RTC_FLAG_TAMP2F) == RESET)
 1484              		.loc 1 897 0
 1485 000c 2368     		ldr	r3, [r4]
 1486 000e DA68     		ldr	r2, [r3, #12]
 1487 0010 12F4804F 		tst	r2, #16384
 1488 0014 0BD1     		bne	.L122
 898:Drivers/STM32F7xx_HAL_Driver/Src/stm32f7xx_hal_rtc_ex.c ****   {
 899:Drivers/STM32F7xx_HAL_Driver/Src/stm32f7xx_hal_rtc_ex.c ****     if(Timeout != HAL_MAX_DELAY)
 1489              		.loc 1 899 0
 1490 0016 B5F1FF3F 		cmp	r5, #-1
 1491 001a F7D0     		beq	.L117
 900:Drivers/STM32F7xx_HAL_Driver/Src/stm32f7xx_hal_rtc_ex.c ****     {
 901:Drivers/STM32F7xx_HAL_Driver/Src/stm32f7xx_hal_rtc_ex.c ****       if((Timeout == 0)||((HAL_GetTick() - tickstart ) > Timeout))
 1492              		.loc 1 901 0
 1493 001c 25B1     		cbz	r5, .L118
 1494              		.loc 1 901 0 is_stmt 0 discriminator 1
 1495 001e FFF7FEFF 		bl	HAL_GetTick
 1496              	.LVL96:
 1497 0022 801B     		subs	r0, r0, r6
 1498 0024 A842     		cmp	r0, r5
 1499 0026 F1D9     		bls	.L117
 1500              	.L118:
 902:Drivers/STM32F7xx_HAL_Driver/Src/stm32f7xx_hal_rtc_ex.c ****       {
 903:Drivers/STM32F7xx_HAL_Driver/Src/stm32f7xx_hal_rtc_ex.c ****         hrtc->State = HAL_RTC_STATE_TIMEOUT;
 1501              		.loc 1 903 0 is_stmt 1
 1502 0028 0320     		movs	r0, #3
 1503 002a 6077     		strb	r0, [r4, #29]
 904:Drivers/STM32F7xx_HAL_Driver/Src/stm32f7xx_hal_rtc_ex.c ****         return HAL_TIMEOUT;
 1504              		.loc 1 904 0
 1505 002c 07E0     		b	.L119
 1506              	.L122:
 905:Drivers/STM32F7xx_HAL_Driver/Src/stm32f7xx_hal_rtc_ex.c ****       }
 906:Drivers/STM32F7xx_HAL_Driver/Src/stm32f7xx_hal_rtc_ex.c ****     }
 907:Drivers/STM32F7xx_HAL_Driver/Src/stm32f7xx_hal_rtc_ex.c ****   }
 908:Drivers/STM32F7xx_HAL_Driver/Src/stm32f7xx_hal_rtc_ex.c ****   
 909:Drivers/STM32F7xx_HAL_Driver/Src/stm32f7xx_hal_rtc_ex.c ****   /* Clear the Tamper Flag */
 910:Drivers/STM32F7xx_HAL_Driver/Src/stm32f7xx_hal_rtc_ex.c ****   __HAL_RTC_TAMPER_CLEAR_FLAG(hrtc,RTC_FLAG_TAMP2F);
 1507              		.loc 1 910 0
 1508 002e DA68     		ldr	r2, [r3, #12]
 1509 0030 D2B2     		uxtb	r2, r2
 1510 0032 62F48142 		orn	r2, r2, #16512
 1511 0036 DA60     		str	r2, [r3, #12]
 911:Drivers/STM32F7xx_HAL_Driver/Src/stm32f7xx_hal_rtc_ex.c ****   
 912:Drivers/STM32F7xx_HAL_Driver/Src/stm32f7xx_hal_rtc_ex.c ****   /* Change RTC state */
 913:Drivers/STM32F7xx_HAL_Driver/Src/stm32f7xx_hal_rtc_ex.c ****   hrtc->State = HAL_RTC_STATE_READY;
 1512              		.loc 1 913 0
 1513 0038 0123     		movs	r3, #1
 1514 003a 6377     		strb	r3, [r4, #29]
ARM GAS  C:\Users\micha\AppData\Local\Temp\ccafMmKQ.s 			page 44


 914:Drivers/STM32F7xx_HAL_Driver/Src/stm32f7xx_hal_rtc_ex.c ****   
 915:Drivers/STM32F7xx_HAL_Driver/Src/stm32f7xx_hal_rtc_ex.c ****   return HAL_OK;
 1515              		.loc 1 915 0
 1516 003c 0020     		movs	r0, #0
 1517              	.L119:
 916:Drivers/STM32F7xx_HAL_Driver/Src/stm32f7xx_hal_rtc_ex.c **** }
 1518              		.loc 1 916 0
 1519 003e 70BD     		pop	{r4, r5, r6, pc}
 1520              		.cfi_endproc
 1521              	.LFE154:
 1523              		.section	.text.HAL_RTCEx_PollForTamper3Event,"ax",%progbits
 1524              		.align	1
 1525              		.global	HAL_RTCEx_PollForTamper3Event
 1526              		.syntax unified
 1527              		.thumb
 1528              		.thumb_func
 1529              		.fpu fpv5-sp-d16
 1531              	HAL_RTCEx_PollForTamper3Event:
 1532              	.LFB155:
 917:Drivers/STM32F7xx_HAL_Driver/Src/stm32f7xx_hal_rtc_ex.c **** 
 918:Drivers/STM32F7xx_HAL_Driver/Src/stm32f7xx_hal_rtc_ex.c **** /**
 919:Drivers/STM32F7xx_HAL_Driver/Src/stm32f7xx_hal_rtc_ex.c ****   * @brief  This function handles Tamper3 Polling.
 920:Drivers/STM32F7xx_HAL_Driver/Src/stm32f7xx_hal_rtc_ex.c ****   * @param  hrtc RTC handle
 921:Drivers/STM32F7xx_HAL_Driver/Src/stm32f7xx_hal_rtc_ex.c ****   * @param  Timeout Timeout duration
 922:Drivers/STM32F7xx_HAL_Driver/Src/stm32f7xx_hal_rtc_ex.c ****   * @retval HAL status
 923:Drivers/STM32F7xx_HAL_Driver/Src/stm32f7xx_hal_rtc_ex.c ****   */
 924:Drivers/STM32F7xx_HAL_Driver/Src/stm32f7xx_hal_rtc_ex.c **** HAL_StatusTypeDef HAL_RTCEx_PollForTamper3Event(RTC_HandleTypeDef *hrtc, uint32_t Timeout)
 925:Drivers/STM32F7xx_HAL_Driver/Src/stm32f7xx_hal_rtc_ex.c **** {
 1533              		.loc 1 925 0
 1534              		.cfi_startproc
 1535              		@ args = 0, pretend = 0, frame = 0
 1536              		@ frame_needed = 0, uses_anonymous_args = 0
 1537              	.LVL97:
 1538 0000 70B5     		push	{r4, r5, r6, lr}
 1539              	.LCFI21:
 1540              		.cfi_def_cfa_offset 16
 1541              		.cfi_offset 4, -16
 1542              		.cfi_offset 5, -12
 1543              		.cfi_offset 6, -8
 1544              		.cfi_offset 14, -4
 1545 0002 0446     		mov	r4, r0
 1546 0004 0D46     		mov	r5, r1
 926:Drivers/STM32F7xx_HAL_Driver/Src/stm32f7xx_hal_rtc_ex.c ****   uint32_t tickstart = HAL_GetTick();
 1547              		.loc 1 926 0
 1548 0006 FFF7FEFF 		bl	HAL_GetTick
 1549              	.LVL98:
 1550 000a 0646     		mov	r6, r0
 1551              	.LVL99:
 1552              	.L125:
 927:Drivers/STM32F7xx_HAL_Driver/Src/stm32f7xx_hal_rtc_ex.c **** 
 928:Drivers/STM32F7xx_HAL_Driver/Src/stm32f7xx_hal_rtc_ex.c ****   /* Get the status of the Interrupt */
 929:Drivers/STM32F7xx_HAL_Driver/Src/stm32f7xx_hal_rtc_ex.c ****   while(__HAL_RTC_TAMPER_GET_FLAG(hrtc, RTC_FLAG_TAMP3F) == RESET)
 1553              		.loc 1 929 0
 1554 000c 2368     		ldr	r3, [r4]
 1555 000e DA68     		ldr	r2, [r3, #12]
 1556 0010 12F4004F 		tst	r2, #32768
 1557 0014 0BD1     		bne	.L130
ARM GAS  C:\Users\micha\AppData\Local\Temp\ccafMmKQ.s 			page 45


 930:Drivers/STM32F7xx_HAL_Driver/Src/stm32f7xx_hal_rtc_ex.c ****   {
 931:Drivers/STM32F7xx_HAL_Driver/Src/stm32f7xx_hal_rtc_ex.c ****     if(Timeout != HAL_MAX_DELAY)
 1558              		.loc 1 931 0
 1559 0016 B5F1FF3F 		cmp	r5, #-1
 1560 001a F7D0     		beq	.L125
 932:Drivers/STM32F7xx_HAL_Driver/Src/stm32f7xx_hal_rtc_ex.c ****     {
 933:Drivers/STM32F7xx_HAL_Driver/Src/stm32f7xx_hal_rtc_ex.c ****       if((Timeout == 0)||((HAL_GetTick() - tickstart ) > Timeout))
 1561              		.loc 1 933 0
 1562 001c 25B1     		cbz	r5, .L126
 1563              		.loc 1 933 0 is_stmt 0 discriminator 1
 1564 001e FFF7FEFF 		bl	HAL_GetTick
 1565              	.LVL100:
 1566 0022 801B     		subs	r0, r0, r6
 1567 0024 A842     		cmp	r0, r5
 1568 0026 F1D9     		bls	.L125
 1569              	.L126:
 934:Drivers/STM32F7xx_HAL_Driver/Src/stm32f7xx_hal_rtc_ex.c ****       {
 935:Drivers/STM32F7xx_HAL_Driver/Src/stm32f7xx_hal_rtc_ex.c ****         hrtc->State = HAL_RTC_STATE_TIMEOUT;
 1570              		.loc 1 935 0 is_stmt 1
 1571 0028 0320     		movs	r0, #3
 1572 002a 6077     		strb	r0, [r4, #29]
 936:Drivers/STM32F7xx_HAL_Driver/Src/stm32f7xx_hal_rtc_ex.c ****         return HAL_TIMEOUT;
 1573              		.loc 1 936 0
 1574 002c 0DE0     		b	.L127
 1575              	.L130:
 937:Drivers/STM32F7xx_HAL_Driver/Src/stm32f7xx_hal_rtc_ex.c ****       }
 938:Drivers/STM32F7xx_HAL_Driver/Src/stm32f7xx_hal_rtc_ex.c ****     }
 939:Drivers/STM32F7xx_HAL_Driver/Src/stm32f7xx_hal_rtc_ex.c ****   }
 940:Drivers/STM32F7xx_HAL_Driver/Src/stm32f7xx_hal_rtc_ex.c **** 
 941:Drivers/STM32F7xx_HAL_Driver/Src/stm32f7xx_hal_rtc_ex.c ****   /* Clear the Tamper Flag */
 942:Drivers/STM32F7xx_HAL_Driver/Src/stm32f7xx_hal_rtc_ex.c ****   __HAL_RTC_TAMPER_CLEAR_FLAG(hrtc,RTC_FLAG_TAMP3F);
 1576              		.loc 1 942 0
 1577 002e DA68     		ldr	r2, [r3, #12]
 1578 0030 D2B2     		uxtb	r2, r2
 1579 0032 42F07F42 		orr	r2, r2, #-16777216
 1580 0036 42F47F02 		orr	r2, r2, #16711680
 1581 003a 42F4FE42 		orr	r2, r2, #32512
 1582 003e 42F07F02 		orr	r2, r2, #127
 1583 0042 DA60     		str	r2, [r3, #12]
 943:Drivers/STM32F7xx_HAL_Driver/Src/stm32f7xx_hal_rtc_ex.c **** 
 944:Drivers/STM32F7xx_HAL_Driver/Src/stm32f7xx_hal_rtc_ex.c ****   /* Change RTC state */
 945:Drivers/STM32F7xx_HAL_Driver/Src/stm32f7xx_hal_rtc_ex.c ****   hrtc->State = HAL_RTC_STATE_READY;
 1584              		.loc 1 945 0
 1585 0044 0123     		movs	r3, #1
 1586 0046 6377     		strb	r3, [r4, #29]
 946:Drivers/STM32F7xx_HAL_Driver/Src/stm32f7xx_hal_rtc_ex.c **** 
 947:Drivers/STM32F7xx_HAL_Driver/Src/stm32f7xx_hal_rtc_ex.c ****   return HAL_OK;
 1587              		.loc 1 947 0
 1588 0048 0020     		movs	r0, #0
 1589              	.L127:
 948:Drivers/STM32F7xx_HAL_Driver/Src/stm32f7xx_hal_rtc_ex.c **** }
 1590              		.loc 1 948 0
 1591 004a 70BD     		pop	{r4, r5, r6, pc}
 1592              		.cfi_endproc
 1593              	.LFE155:
 1595              		.section	.text.HAL_RTCEx_SetWakeUpTimer,"ax",%progbits
 1596              		.align	1
ARM GAS  C:\Users\micha\AppData\Local\Temp\ccafMmKQ.s 			page 46


 1597              		.global	HAL_RTCEx_SetWakeUpTimer
 1598              		.syntax unified
 1599              		.thumb
 1600              		.thumb_func
 1601              		.fpu fpv5-sp-d16
 1603              	HAL_RTCEx_SetWakeUpTimer:
 1604              	.LFB156:
 949:Drivers/STM32F7xx_HAL_Driver/Src/stm32f7xx_hal_rtc_ex.c **** 
 950:Drivers/STM32F7xx_HAL_Driver/Src/stm32f7xx_hal_rtc_ex.c **** /**
 951:Drivers/STM32F7xx_HAL_Driver/Src/stm32f7xx_hal_rtc_ex.c ****   * @}
 952:Drivers/STM32F7xx_HAL_Driver/Src/stm32f7xx_hal_rtc_ex.c ****   */
 953:Drivers/STM32F7xx_HAL_Driver/Src/stm32f7xx_hal_rtc_ex.c ****   
 954:Drivers/STM32F7xx_HAL_Driver/Src/stm32f7xx_hal_rtc_ex.c **** /** @defgroup RTCEx_Group2 RTC Wake-up functions
 955:Drivers/STM32F7xx_HAL_Driver/Src/stm32f7xx_hal_rtc_ex.c ****  *  @brief   RTC Wake-up functions
 956:Drivers/STM32F7xx_HAL_Driver/Src/stm32f7xx_hal_rtc_ex.c ****  *
 957:Drivers/STM32F7xx_HAL_Driver/Src/stm32f7xx_hal_rtc_ex.c **** @verbatim   
 958:Drivers/STM32F7xx_HAL_Driver/Src/stm32f7xx_hal_rtc_ex.c ****  ===============================================================================
 959:Drivers/STM32F7xx_HAL_Driver/Src/stm32f7xx_hal_rtc_ex.c ****                         ##### RTC Wake-up functions #####
 960:Drivers/STM32F7xx_HAL_Driver/Src/stm32f7xx_hal_rtc_ex.c ****  ===============================================================================  
 961:Drivers/STM32F7xx_HAL_Driver/Src/stm32f7xx_hal_rtc_ex.c ****  
 962:Drivers/STM32F7xx_HAL_Driver/Src/stm32f7xx_hal_rtc_ex.c ****  [..] This section provides functions allowing to configure Wake-up feature
 963:Drivers/STM32F7xx_HAL_Driver/Src/stm32f7xx_hal_rtc_ex.c **** 
 964:Drivers/STM32F7xx_HAL_Driver/Src/stm32f7xx_hal_rtc_ex.c **** @endverbatim
 965:Drivers/STM32F7xx_HAL_Driver/Src/stm32f7xx_hal_rtc_ex.c ****   * @{
 966:Drivers/STM32F7xx_HAL_Driver/Src/stm32f7xx_hal_rtc_ex.c ****   */
 967:Drivers/STM32F7xx_HAL_Driver/Src/stm32f7xx_hal_rtc_ex.c **** 
 968:Drivers/STM32F7xx_HAL_Driver/Src/stm32f7xx_hal_rtc_ex.c **** /**
 969:Drivers/STM32F7xx_HAL_Driver/Src/stm32f7xx_hal_rtc_ex.c ****   * @brief  Sets wake up timer. 
 970:Drivers/STM32F7xx_HAL_Driver/Src/stm32f7xx_hal_rtc_ex.c ****   * @param  hrtc pointer to a RTC_HandleTypeDef structure that contains
 971:Drivers/STM32F7xx_HAL_Driver/Src/stm32f7xx_hal_rtc_ex.c ****   *                the configuration information for RTC.
 972:Drivers/STM32F7xx_HAL_Driver/Src/stm32f7xx_hal_rtc_ex.c ****   * @param  WakeUpCounter Wake up counter
 973:Drivers/STM32F7xx_HAL_Driver/Src/stm32f7xx_hal_rtc_ex.c ****   * @param  WakeUpClock Wake up clock  
 974:Drivers/STM32F7xx_HAL_Driver/Src/stm32f7xx_hal_rtc_ex.c ****   * @retval HAL status
 975:Drivers/STM32F7xx_HAL_Driver/Src/stm32f7xx_hal_rtc_ex.c ****   */
 976:Drivers/STM32F7xx_HAL_Driver/Src/stm32f7xx_hal_rtc_ex.c **** HAL_StatusTypeDef HAL_RTCEx_SetWakeUpTimer(RTC_HandleTypeDef *hrtc, uint32_t WakeUpCounter, uint32_
 977:Drivers/STM32F7xx_HAL_Driver/Src/stm32f7xx_hal_rtc_ex.c **** {
 1605              		.loc 1 977 0
 1606              		.cfi_startproc
 1607              		@ args = 0, pretend = 0, frame = 0
 1608              		@ frame_needed = 0, uses_anonymous_args = 0
 1609              	.LVL101:
 1610 0000 F8B5     		push	{r3, r4, r5, r6, r7, lr}
 1611              	.LCFI22:
 1612              		.cfi_def_cfa_offset 24
 1613              		.cfi_offset 3, -24
 1614              		.cfi_offset 4, -20
 1615              		.cfi_offset 5, -16
 1616              		.cfi_offset 6, -12
 1617              		.cfi_offset 7, -8
 1618              		.cfi_offset 14, -4
 1619              	.LVL102:
 978:Drivers/STM32F7xx_HAL_Driver/Src/stm32f7xx_hal_rtc_ex.c ****   uint32_t tickstart = 0;
 979:Drivers/STM32F7xx_HAL_Driver/Src/stm32f7xx_hal_rtc_ex.c **** 
 980:Drivers/STM32F7xx_HAL_Driver/Src/stm32f7xx_hal_rtc_ex.c ****   /* Check the parameters */
 981:Drivers/STM32F7xx_HAL_Driver/Src/stm32f7xx_hal_rtc_ex.c ****   assert_param(IS_RTC_WAKEUP_CLOCK(WakeUpClock));
 982:Drivers/STM32F7xx_HAL_Driver/Src/stm32f7xx_hal_rtc_ex.c ****   assert_param(IS_RTC_WAKEUP_COUNTER(WakeUpCounter));
 983:Drivers/STM32F7xx_HAL_Driver/Src/stm32f7xx_hal_rtc_ex.c ****  
ARM GAS  C:\Users\micha\AppData\Local\Temp\ccafMmKQ.s 			page 47


 984:Drivers/STM32F7xx_HAL_Driver/Src/stm32f7xx_hal_rtc_ex.c ****   /* Process Locked */ 
 985:Drivers/STM32F7xx_HAL_Driver/Src/stm32f7xx_hal_rtc_ex.c ****   __HAL_LOCK(hrtc);
 1620              		.loc 1 985 0
 1621 0002 037F     		ldrb	r3, [r0, #28]	@ zero_extendqisi2
 1622 0004 012B     		cmp	r3, #1
 1623 0006 44D0     		beq	.L136
 1624 0008 1646     		mov	r6, r2
 1625 000a 0D46     		mov	r5, r1
 1626 000c 0446     		mov	r4, r0
 1627              		.loc 1 985 0 is_stmt 0 discriminator 2
 1628 000e 0123     		movs	r3, #1
 1629 0010 0377     		strb	r3, [r0, #28]
 986:Drivers/STM32F7xx_HAL_Driver/Src/stm32f7xx_hal_rtc_ex.c ****     
 987:Drivers/STM32F7xx_HAL_Driver/Src/stm32f7xx_hal_rtc_ex.c ****   hrtc->State = HAL_RTC_STATE_BUSY;
 1630              		.loc 1 987 0 is_stmt 1 discriminator 2
 1631 0012 0223     		movs	r3, #2
 1632 0014 4377     		strb	r3, [r0, #29]
 988:Drivers/STM32F7xx_HAL_Driver/Src/stm32f7xx_hal_rtc_ex.c ****   
 989:Drivers/STM32F7xx_HAL_Driver/Src/stm32f7xx_hal_rtc_ex.c ****   /* Disable the write protection for RTC registers */
 990:Drivers/STM32F7xx_HAL_Driver/Src/stm32f7xx_hal_rtc_ex.c ****   __HAL_RTC_WRITEPROTECTION_DISABLE(hrtc);
 1633              		.loc 1 990 0 discriminator 2
 1634 0016 0368     		ldr	r3, [r0]
 1635 0018 CA22     		movs	r2, #202
 1636              	.LVL103:
 1637 001a 5A62     		str	r2, [r3, #36]
 1638 001c 0368     		ldr	r3, [r0]
 1639 001e 5322     		movs	r2, #83
 1640 0020 5A62     		str	r2, [r3, #36]
 991:Drivers/STM32F7xx_HAL_Driver/Src/stm32f7xx_hal_rtc_ex.c ****   
 992:Drivers/STM32F7xx_HAL_Driver/Src/stm32f7xx_hal_rtc_ex.c ****   __HAL_RTC_WAKEUPTIMER_DISABLE(hrtc);
 1641              		.loc 1 992 0 discriminator 2
 1642 0022 0268     		ldr	r2, [r0]
 1643 0024 9368     		ldr	r3, [r2, #8]
 1644 0026 23F48063 		bic	r3, r3, #1024
 1645 002a 9360     		str	r3, [r2, #8]
 993:Drivers/STM32F7xx_HAL_Driver/Src/stm32f7xx_hal_rtc_ex.c **** 
 994:Drivers/STM32F7xx_HAL_Driver/Src/stm32f7xx_hal_rtc_ex.c ****   /* Get tick */
 995:Drivers/STM32F7xx_HAL_Driver/Src/stm32f7xx_hal_rtc_ex.c ****   tickstart = HAL_GetTick();
 1646              		.loc 1 995 0 discriminator 2
 1647 002c FFF7FEFF 		bl	HAL_GetTick
 1648              	.LVL104:
 1649 0030 0746     		mov	r7, r0
 1650              	.LVL105:
 996:Drivers/STM32F7xx_HAL_Driver/Src/stm32f7xx_hal_rtc_ex.c **** 
 997:Drivers/STM32F7xx_HAL_Driver/Src/stm32f7xx_hal_rtc_ex.c ****   /*Check RTC WUTWF flag is reset only when wake up timer enabled*/
 998:Drivers/STM32F7xx_HAL_Driver/Src/stm32f7xx_hal_rtc_ex.c ****   if((hrtc->Instance->CR & RTC_CR_WUTE) != RESET)
 1651              		.loc 1 998 0 discriminator 2
 1652 0032 2368     		ldr	r3, [r4]
 1653 0034 9B68     		ldr	r3, [r3, #8]
 1654 0036 13F4806F 		tst	r3, #1024
 1655 003a 17D1     		bne	.L133
 1656              	.LVL106:
 1657              	.L134:
 999:Drivers/STM32F7xx_HAL_Driver/Src/stm32f7xx_hal_rtc_ex.c ****   {
1000:Drivers/STM32F7xx_HAL_Driver/Src/stm32f7xx_hal_rtc_ex.c ****     /* Wait till RTC WUTWF flag is set and if Time out is reached exit */
1001:Drivers/STM32F7xx_HAL_Driver/Src/stm32f7xx_hal_rtc_ex.c ****     while(__HAL_RTC_WAKEUPTIMER_GET_FLAG(hrtc, RTC_FLAG_WUTWF) == RESET)
1002:Drivers/STM32F7xx_HAL_Driver/Src/stm32f7xx_hal_rtc_ex.c ****     {
ARM GAS  C:\Users\micha\AppData\Local\Temp\ccafMmKQ.s 			page 48


1003:Drivers/STM32F7xx_HAL_Driver/Src/stm32f7xx_hal_rtc_ex.c ****       if((HAL_GetTick() - tickstart ) > RTC_TIMEOUT_VALUE)
1004:Drivers/STM32F7xx_HAL_Driver/Src/stm32f7xx_hal_rtc_ex.c ****       {
1005:Drivers/STM32F7xx_HAL_Driver/Src/stm32f7xx_hal_rtc_ex.c ****         /* Enable the write protection for RTC registers */
1006:Drivers/STM32F7xx_HAL_Driver/Src/stm32f7xx_hal_rtc_ex.c ****         __HAL_RTC_WRITEPROTECTION_ENABLE(hrtc);
1007:Drivers/STM32F7xx_HAL_Driver/Src/stm32f7xx_hal_rtc_ex.c ****       
1008:Drivers/STM32F7xx_HAL_Driver/Src/stm32f7xx_hal_rtc_ex.c ****         hrtc->State = HAL_RTC_STATE_TIMEOUT; 
1009:Drivers/STM32F7xx_HAL_Driver/Src/stm32f7xx_hal_rtc_ex.c ****       
1010:Drivers/STM32F7xx_HAL_Driver/Src/stm32f7xx_hal_rtc_ex.c ****         /* Process Unlocked */ 
1011:Drivers/STM32F7xx_HAL_Driver/Src/stm32f7xx_hal_rtc_ex.c ****         __HAL_UNLOCK(hrtc);
1012:Drivers/STM32F7xx_HAL_Driver/Src/stm32f7xx_hal_rtc_ex.c ****       
1013:Drivers/STM32F7xx_HAL_Driver/Src/stm32f7xx_hal_rtc_ex.c ****         return HAL_TIMEOUT;
1014:Drivers/STM32F7xx_HAL_Driver/Src/stm32f7xx_hal_rtc_ex.c ****       }  
1015:Drivers/STM32F7xx_HAL_Driver/Src/stm32f7xx_hal_rtc_ex.c ****     }
1016:Drivers/STM32F7xx_HAL_Driver/Src/stm32f7xx_hal_rtc_ex.c ****   }
1017:Drivers/STM32F7xx_HAL_Driver/Src/stm32f7xx_hal_rtc_ex.c ****   
1018:Drivers/STM32F7xx_HAL_Driver/Src/stm32f7xx_hal_rtc_ex.c ****   /* Clear the Wakeup Timer clock source bits in CR register */
1019:Drivers/STM32F7xx_HAL_Driver/Src/stm32f7xx_hal_rtc_ex.c ****   hrtc->Instance->CR &= (uint32_t)~RTC_CR_WUCKSEL;
 1658              		.loc 1 1019 0
 1659 003c 2268     		ldr	r2, [r4]
 1660 003e 9368     		ldr	r3, [r2, #8]
 1661 0040 23F00703 		bic	r3, r3, #7
 1662 0044 9360     		str	r3, [r2, #8]
1020:Drivers/STM32F7xx_HAL_Driver/Src/stm32f7xx_hal_rtc_ex.c ****   
1021:Drivers/STM32F7xx_HAL_Driver/Src/stm32f7xx_hal_rtc_ex.c ****   /* Configure the clock source */
1022:Drivers/STM32F7xx_HAL_Driver/Src/stm32f7xx_hal_rtc_ex.c ****   hrtc->Instance->CR |= (uint32_t)WakeUpClock;
 1663              		.loc 1 1022 0
 1664 0046 2368     		ldr	r3, [r4]
 1665 0048 9A68     		ldr	r2, [r3, #8]
 1666 004a 1643     		orrs	r6, r6, r2
 1667              	.LVL107:
 1668 004c 9E60     		str	r6, [r3, #8]
1023:Drivers/STM32F7xx_HAL_Driver/Src/stm32f7xx_hal_rtc_ex.c ****   
1024:Drivers/STM32F7xx_HAL_Driver/Src/stm32f7xx_hal_rtc_ex.c ****   /* Configure the Wakeup Timer counter */
1025:Drivers/STM32F7xx_HAL_Driver/Src/stm32f7xx_hal_rtc_ex.c ****   hrtc->Instance->WUTR = (uint32_t)WakeUpCounter;
 1669              		.loc 1 1025 0
 1670 004e 2368     		ldr	r3, [r4]
 1671 0050 5D61     		str	r5, [r3, #20]
1026:Drivers/STM32F7xx_HAL_Driver/Src/stm32f7xx_hal_rtc_ex.c ****   
1027:Drivers/STM32F7xx_HAL_Driver/Src/stm32f7xx_hal_rtc_ex.c ****    /* Enable the Wakeup Timer */
1028:Drivers/STM32F7xx_HAL_Driver/Src/stm32f7xx_hal_rtc_ex.c ****   __HAL_RTC_WAKEUPTIMER_ENABLE(hrtc);   
 1672              		.loc 1 1028 0
 1673 0052 2268     		ldr	r2, [r4]
 1674 0054 9368     		ldr	r3, [r2, #8]
 1675 0056 43F48063 		orr	r3, r3, #1024
 1676 005a 9360     		str	r3, [r2, #8]
1029:Drivers/STM32F7xx_HAL_Driver/Src/stm32f7xx_hal_rtc_ex.c ****   
1030:Drivers/STM32F7xx_HAL_Driver/Src/stm32f7xx_hal_rtc_ex.c ****   /* Enable the write protection for RTC registers */
1031:Drivers/STM32F7xx_HAL_Driver/Src/stm32f7xx_hal_rtc_ex.c ****   __HAL_RTC_WRITEPROTECTION_ENABLE(hrtc); 
 1677              		.loc 1 1031 0
 1678 005c 2368     		ldr	r3, [r4]
 1679 005e FF22     		movs	r2, #255
 1680 0060 5A62     		str	r2, [r3, #36]
1032:Drivers/STM32F7xx_HAL_Driver/Src/stm32f7xx_hal_rtc_ex.c ****   
1033:Drivers/STM32F7xx_HAL_Driver/Src/stm32f7xx_hal_rtc_ex.c ****   hrtc->State = HAL_RTC_STATE_READY;   
 1681              		.loc 1 1033 0
 1682 0062 0123     		movs	r3, #1
 1683 0064 6377     		strb	r3, [r4, #29]
ARM GAS  C:\Users\micha\AppData\Local\Temp\ccafMmKQ.s 			page 49


1034:Drivers/STM32F7xx_HAL_Driver/Src/stm32f7xx_hal_rtc_ex.c ****   
1035:Drivers/STM32F7xx_HAL_Driver/Src/stm32f7xx_hal_rtc_ex.c ****   /* Process Unlocked */ 
1036:Drivers/STM32F7xx_HAL_Driver/Src/stm32f7xx_hal_rtc_ex.c ****   __HAL_UNLOCK(hrtc);
 1684              		.loc 1 1036 0
 1685 0066 0020     		movs	r0, #0
 1686 0068 2077     		strb	r0, [r4, #28]
 1687              	.LVL108:
 1688              	.L132:
1037:Drivers/STM32F7xx_HAL_Driver/Src/stm32f7xx_hal_rtc_ex.c ****   
1038:Drivers/STM32F7xx_HAL_Driver/Src/stm32f7xx_hal_rtc_ex.c ****   return HAL_OK;
1039:Drivers/STM32F7xx_HAL_Driver/Src/stm32f7xx_hal_rtc_ex.c **** }
 1689              		.loc 1 1039 0
 1690 006a F8BD     		pop	{r3, r4, r5, r6, r7, pc}
 1691              	.LVL109:
 1692              	.L133:
1001:Drivers/STM32F7xx_HAL_Driver/Src/stm32f7xx_hal_rtc_ex.c ****     {
 1693              		.loc 1 1001 0
 1694 006c 2368     		ldr	r3, [r4]
 1695 006e DB68     		ldr	r3, [r3, #12]
 1696 0070 13F0040F 		tst	r3, #4
 1697 0074 E2D1     		bne	.L134
1003:Drivers/STM32F7xx_HAL_Driver/Src/stm32f7xx_hal_rtc_ex.c ****       {
 1698              		.loc 1 1003 0
 1699 0076 FFF7FEFF 		bl	HAL_GetTick
 1700              	.LVL110:
 1701 007a C01B     		subs	r0, r0, r7
 1702 007c B0F57A7F 		cmp	r0, #1000
 1703 0080 F4D9     		bls	.L133
1006:Drivers/STM32F7xx_HAL_Driver/Src/stm32f7xx_hal_rtc_ex.c ****       
 1704              		.loc 1 1006 0
 1705 0082 2368     		ldr	r3, [r4]
 1706 0084 FF22     		movs	r2, #255
 1707 0086 5A62     		str	r2, [r3, #36]
1008:Drivers/STM32F7xx_HAL_Driver/Src/stm32f7xx_hal_rtc_ex.c ****       
 1708              		.loc 1 1008 0
 1709 0088 0320     		movs	r0, #3
 1710 008a 6077     		strb	r0, [r4, #29]
1011:Drivers/STM32F7xx_HAL_Driver/Src/stm32f7xx_hal_rtc_ex.c ****       
 1711              		.loc 1 1011 0
 1712 008c 0023     		movs	r3, #0
 1713 008e 2377     		strb	r3, [r4, #28]
1013:Drivers/STM32F7xx_HAL_Driver/Src/stm32f7xx_hal_rtc_ex.c ****       }  
 1714              		.loc 1 1013 0
 1715 0090 EBE7     		b	.L132
 1716              	.LVL111:
 1717              	.L136:
 985:Drivers/STM32F7xx_HAL_Driver/Src/stm32f7xx_hal_rtc_ex.c ****     
 1718              		.loc 1 985 0
 1719 0092 0220     		movs	r0, #2
 1720              	.LVL112:
 1721 0094 E9E7     		b	.L132
 1722              		.cfi_endproc
 1723              	.LFE156:
 1725              		.section	.text.HAL_RTCEx_SetWakeUpTimer_IT,"ax",%progbits
 1726              		.align	1
 1727              		.global	HAL_RTCEx_SetWakeUpTimer_IT
 1728              		.syntax unified
ARM GAS  C:\Users\micha\AppData\Local\Temp\ccafMmKQ.s 			page 50


 1729              		.thumb
 1730              		.thumb_func
 1731              		.fpu fpv5-sp-d16
 1733              	HAL_RTCEx_SetWakeUpTimer_IT:
 1734              	.LFB157:
1040:Drivers/STM32F7xx_HAL_Driver/Src/stm32f7xx_hal_rtc_ex.c **** 
1041:Drivers/STM32F7xx_HAL_Driver/Src/stm32f7xx_hal_rtc_ex.c **** /**
1042:Drivers/STM32F7xx_HAL_Driver/Src/stm32f7xx_hal_rtc_ex.c ****   * @brief  Sets wake up timer with interrupt
1043:Drivers/STM32F7xx_HAL_Driver/Src/stm32f7xx_hal_rtc_ex.c ****   * @param  hrtc pointer to a RTC_HandleTypeDef structure that contains
1044:Drivers/STM32F7xx_HAL_Driver/Src/stm32f7xx_hal_rtc_ex.c ****   *                the configuration information for RTC.
1045:Drivers/STM32F7xx_HAL_Driver/Src/stm32f7xx_hal_rtc_ex.c ****   * @param  WakeUpCounter Wake up counter
1046:Drivers/STM32F7xx_HAL_Driver/Src/stm32f7xx_hal_rtc_ex.c ****   * @param  WakeUpClock Wake up clock  
1047:Drivers/STM32F7xx_HAL_Driver/Src/stm32f7xx_hal_rtc_ex.c ****   * @retval HAL status
1048:Drivers/STM32F7xx_HAL_Driver/Src/stm32f7xx_hal_rtc_ex.c ****   */
1049:Drivers/STM32F7xx_HAL_Driver/Src/stm32f7xx_hal_rtc_ex.c **** HAL_StatusTypeDef HAL_RTCEx_SetWakeUpTimer_IT(RTC_HandleTypeDef *hrtc, uint32_t WakeUpCounter, uint
1050:Drivers/STM32F7xx_HAL_Driver/Src/stm32f7xx_hal_rtc_ex.c **** {
 1735              		.loc 1 1050 0
 1736              		.cfi_startproc
 1737              		@ args = 0, pretend = 0, frame = 8
 1738              		@ frame_needed = 0, uses_anonymous_args = 0
 1739              		@ link register save eliminated.
 1740              	.LVL113:
1051:Drivers/STM32F7xx_HAL_Driver/Src/stm32f7xx_hal_rtc_ex.c ****   __IO uint32_t count;
1052:Drivers/STM32F7xx_HAL_Driver/Src/stm32f7xx_hal_rtc_ex.c **** 
1053:Drivers/STM32F7xx_HAL_Driver/Src/stm32f7xx_hal_rtc_ex.c ****   /* Check the parameters */
1054:Drivers/STM32F7xx_HAL_Driver/Src/stm32f7xx_hal_rtc_ex.c ****   assert_param(IS_RTC_WAKEUP_CLOCK(WakeUpClock));
1055:Drivers/STM32F7xx_HAL_Driver/Src/stm32f7xx_hal_rtc_ex.c ****   assert_param(IS_RTC_WAKEUP_COUNTER(WakeUpCounter));
1056:Drivers/STM32F7xx_HAL_Driver/Src/stm32f7xx_hal_rtc_ex.c ****   
1057:Drivers/STM32F7xx_HAL_Driver/Src/stm32f7xx_hal_rtc_ex.c ****   /* Process Locked */ 
1058:Drivers/STM32F7xx_HAL_Driver/Src/stm32f7xx_hal_rtc_ex.c ****   __HAL_LOCK(hrtc);
 1741              		.loc 1 1058 0
 1742 0000 037F     		ldrb	r3, [r0, #28]	@ zero_extendqisi2
 1743 0002 012B     		cmp	r3, #1
 1744 0004 00F08280 		beq	.L145
1050:Drivers/STM32F7xx_HAL_Driver/Src/stm32f7xx_hal_rtc_ex.c ****   __IO uint32_t count;
 1745              		.loc 1 1050 0 discriminator 2
 1746 0008 30B4     		push	{r4, r5}
 1747              	.LCFI23:
 1748              		.cfi_def_cfa_offset 8
 1749              		.cfi_offset 4, -8
 1750              		.cfi_offset 5, -4
 1751 000a 82B0     		sub	sp, sp, #8
 1752              	.LCFI24:
 1753              		.cfi_def_cfa_offset 16
 1754              		.loc 1 1058 0 discriminator 2
 1755 000c 0123     		movs	r3, #1
 1756 000e 0377     		strb	r3, [r0, #28]
1059:Drivers/STM32F7xx_HAL_Driver/Src/stm32f7xx_hal_rtc_ex.c ****   
1060:Drivers/STM32F7xx_HAL_Driver/Src/stm32f7xx_hal_rtc_ex.c ****   hrtc->State = HAL_RTC_STATE_BUSY;
 1757              		.loc 1 1060 0 discriminator 2
 1758 0010 0223     		movs	r3, #2
 1759 0012 4377     		strb	r3, [r0, #29]
1061:Drivers/STM32F7xx_HAL_Driver/Src/stm32f7xx_hal_rtc_ex.c ****   
1062:Drivers/STM32F7xx_HAL_Driver/Src/stm32f7xx_hal_rtc_ex.c ****   /* Disable the write protection for RTC registers */
1063:Drivers/STM32F7xx_HAL_Driver/Src/stm32f7xx_hal_rtc_ex.c ****   __HAL_RTC_WRITEPROTECTION_DISABLE(hrtc);
 1760              		.loc 1 1063 0 discriminator 2
 1761 0014 0368     		ldr	r3, [r0]
ARM GAS  C:\Users\micha\AppData\Local\Temp\ccafMmKQ.s 			page 51


 1762 0016 CA24     		movs	r4, #202
 1763 0018 5C62     		str	r4, [r3, #36]
 1764 001a 0368     		ldr	r3, [r0]
 1765 001c 5324     		movs	r4, #83
 1766 001e 5C62     		str	r4, [r3, #36]
1064:Drivers/STM32F7xx_HAL_Driver/Src/stm32f7xx_hal_rtc_ex.c ****   
1065:Drivers/STM32F7xx_HAL_Driver/Src/stm32f7xx_hal_rtc_ex.c ****   __HAL_RTC_WAKEUPTIMER_DISABLE(hrtc);
 1767              		.loc 1 1065 0 discriminator 2
 1768 0020 0468     		ldr	r4, [r0]
 1769 0022 A368     		ldr	r3, [r4, #8]
 1770 0024 23F48063 		bic	r3, r3, #1024
 1771 0028 A360     		str	r3, [r4, #8]
1066:Drivers/STM32F7xx_HAL_Driver/Src/stm32f7xx_hal_rtc_ex.c **** 
1067:Drivers/STM32F7xx_HAL_Driver/Src/stm32f7xx_hal_rtc_ex.c ****   /* Check RTC WUTWF flag is reset only when wake up timer enabled */
1068:Drivers/STM32F7xx_HAL_Driver/Src/stm32f7xx_hal_rtc_ex.c ****   if((hrtc->Instance->CR & RTC_CR_WUTE) != RESET)
 1772              		.loc 1 1068 0 discriminator 2
 1773 002a 0468     		ldr	r4, [r0]
 1774 002c A368     		ldr	r3, [r4, #8]
 1775 002e 13F4806F 		tst	r3, #1024
 1776 0032 13D0     		beq	.L140
1069:Drivers/STM32F7xx_HAL_Driver/Src/stm32f7xx_hal_rtc_ex.c ****   {
1070:Drivers/STM32F7xx_HAL_Driver/Src/stm32f7xx_hal_rtc_ex.c ****     /* Wait till RTC WUTWF flag is reset and if Time out is reached exit */
1071:Drivers/STM32F7xx_HAL_Driver/Src/stm32f7xx_hal_rtc_ex.c ****     count = RTC_TIMEOUT_VALUE  * (SystemCoreClock / 32U / 1000U);
 1777              		.loc 1 1071 0
 1778 0034 364B     		ldr	r3, .L152
 1779 0036 1B68     		ldr	r3, [r3]
 1780 0038 364D     		ldr	r5, .L152+4
 1781 003a A5FB0353 		umull	r5, r3, r5, r3
 1782 003e DB0A     		lsrs	r3, r3, #11
 1783 0040 4FF47A75 		mov	r5, #1000
 1784 0044 05FB03F3 		mul	r3, r5, r3
 1785 0048 0193     		str	r3, [sp, #4]
 1786              	.L142:
1072:Drivers/STM32F7xx_HAL_Driver/Src/stm32f7xx_hal_rtc_ex.c ****     do
1073:Drivers/STM32F7xx_HAL_Driver/Src/stm32f7xx_hal_rtc_ex.c ****     {
1074:Drivers/STM32F7xx_HAL_Driver/Src/stm32f7xx_hal_rtc_ex.c ****       if(count-- == 0U)
 1787              		.loc 1 1074 0
 1788 004a 019B     		ldr	r3, [sp, #4]
 1789 004c 5D1E     		subs	r5, r3, #1
 1790 004e 0195     		str	r5, [sp, #4]
 1791 0050 002B     		cmp	r3, #0
 1792 0052 48D0     		beq	.L150
1075:Drivers/STM32F7xx_HAL_Driver/Src/stm32f7xx_hal_rtc_ex.c ****       {
1076:Drivers/STM32F7xx_HAL_Driver/Src/stm32f7xx_hal_rtc_ex.c ****         /* Enable the write protection for RTC registers */
1077:Drivers/STM32F7xx_HAL_Driver/Src/stm32f7xx_hal_rtc_ex.c ****         __HAL_RTC_WRITEPROTECTION_ENABLE(hrtc);
1078:Drivers/STM32F7xx_HAL_Driver/Src/stm32f7xx_hal_rtc_ex.c **** 
1079:Drivers/STM32F7xx_HAL_Driver/Src/stm32f7xx_hal_rtc_ex.c ****         hrtc->State = HAL_RTC_STATE_TIMEOUT;
1080:Drivers/STM32F7xx_HAL_Driver/Src/stm32f7xx_hal_rtc_ex.c **** 
1081:Drivers/STM32F7xx_HAL_Driver/Src/stm32f7xx_hal_rtc_ex.c ****         /* Process Unlocked */
1082:Drivers/STM32F7xx_HAL_Driver/Src/stm32f7xx_hal_rtc_ex.c ****         __HAL_UNLOCK(hrtc);
1083:Drivers/STM32F7xx_HAL_Driver/Src/stm32f7xx_hal_rtc_ex.c **** 
1084:Drivers/STM32F7xx_HAL_Driver/Src/stm32f7xx_hal_rtc_ex.c ****         return HAL_TIMEOUT;
1085:Drivers/STM32F7xx_HAL_Driver/Src/stm32f7xx_hal_rtc_ex.c ****       }
1086:Drivers/STM32F7xx_HAL_Driver/Src/stm32f7xx_hal_rtc_ex.c ****     }
1087:Drivers/STM32F7xx_HAL_Driver/Src/stm32f7xx_hal_rtc_ex.c ****     while(__HAL_RTC_WAKEUPTIMER_GET_FLAG(hrtc, RTC_FLAG_WUTWF) == SET);
 1793              		.loc 1 1087 0
 1794 0054 E368     		ldr	r3, [r4, #12]
ARM GAS  C:\Users\micha\AppData\Local\Temp\ccafMmKQ.s 			page 52


 1795 0056 13F0040F 		tst	r3, #4
 1796 005a F6D1     		bne	.L142
 1797              	.L140:
1088:Drivers/STM32F7xx_HAL_Driver/Src/stm32f7xx_hal_rtc_ex.c ****   }
1089:Drivers/STM32F7xx_HAL_Driver/Src/stm32f7xx_hal_rtc_ex.c **** 
1090:Drivers/STM32F7xx_HAL_Driver/Src/stm32f7xx_hal_rtc_ex.c ****   __HAL_RTC_WAKEUPTIMER_DISABLE(hrtc);
 1798              		.loc 1 1090 0
 1799 005c A368     		ldr	r3, [r4, #8]
 1800 005e 23F48063 		bic	r3, r3, #1024
 1801 0062 A360     		str	r3, [r4, #8]
1091:Drivers/STM32F7xx_HAL_Driver/Src/stm32f7xx_hal_rtc_ex.c **** 
1092:Drivers/STM32F7xx_HAL_Driver/Src/stm32f7xx_hal_rtc_ex.c ****   /* Wait till RTC WUTWF flag is set and if Time out is reached exit */
1093:Drivers/STM32F7xx_HAL_Driver/Src/stm32f7xx_hal_rtc_ex.c ****   count = RTC_TIMEOUT_VALUE  * (SystemCoreClock / 32U / 1000U);
 1802              		.loc 1 1093 0
 1803 0064 2A4B     		ldr	r3, .L152
 1804 0066 1B68     		ldr	r3, [r3]
 1805 0068 2A4C     		ldr	r4, .L152+4
 1806 006a A4FB0343 		umull	r4, r3, r4, r3
 1807 006e DB0A     		lsrs	r3, r3, #11
 1808 0070 4FF47A74 		mov	r4, #1000
 1809 0074 04FB03F3 		mul	r3, r4, r3
 1810 0078 0193     		str	r3, [sp, #4]
 1811              	.L144:
1094:Drivers/STM32F7xx_HAL_Driver/Src/stm32f7xx_hal_rtc_ex.c ****   do
1095:Drivers/STM32F7xx_HAL_Driver/Src/stm32f7xx_hal_rtc_ex.c ****   {
1096:Drivers/STM32F7xx_HAL_Driver/Src/stm32f7xx_hal_rtc_ex.c ****     if(count-- == 0U)
 1812              		.loc 1 1096 0
 1813 007a 019B     		ldr	r3, [sp, #4]
 1814 007c 5C1E     		subs	r4, r3, #1
 1815 007e 0194     		str	r4, [sp, #4]
 1816 0080 002B     		cmp	r3, #0
 1817 0082 38D0     		beq	.L151
1097:Drivers/STM32F7xx_HAL_Driver/Src/stm32f7xx_hal_rtc_ex.c ****     {
1098:Drivers/STM32F7xx_HAL_Driver/Src/stm32f7xx_hal_rtc_ex.c ****       /* Enable the write protection for RTC registers */
1099:Drivers/STM32F7xx_HAL_Driver/Src/stm32f7xx_hal_rtc_ex.c ****       __HAL_RTC_WRITEPROTECTION_ENABLE(hrtc);
1100:Drivers/STM32F7xx_HAL_Driver/Src/stm32f7xx_hal_rtc_ex.c **** 
1101:Drivers/STM32F7xx_HAL_Driver/Src/stm32f7xx_hal_rtc_ex.c ****       hrtc->State = HAL_RTC_STATE_TIMEOUT;
1102:Drivers/STM32F7xx_HAL_Driver/Src/stm32f7xx_hal_rtc_ex.c **** 
1103:Drivers/STM32F7xx_HAL_Driver/Src/stm32f7xx_hal_rtc_ex.c ****       /* Process Unlocked */
1104:Drivers/STM32F7xx_HAL_Driver/Src/stm32f7xx_hal_rtc_ex.c ****       __HAL_UNLOCK(hrtc);
1105:Drivers/STM32F7xx_HAL_Driver/Src/stm32f7xx_hal_rtc_ex.c **** 
1106:Drivers/STM32F7xx_HAL_Driver/Src/stm32f7xx_hal_rtc_ex.c ****       return HAL_TIMEOUT;
1107:Drivers/STM32F7xx_HAL_Driver/Src/stm32f7xx_hal_rtc_ex.c ****     }
1108:Drivers/STM32F7xx_HAL_Driver/Src/stm32f7xx_hal_rtc_ex.c ****   }
1109:Drivers/STM32F7xx_HAL_Driver/Src/stm32f7xx_hal_rtc_ex.c ****   while(__HAL_RTC_WAKEUPTIMER_GET_FLAG(hrtc, RTC_FLAG_WUTWF) == RESET);
 1818              		.loc 1 1109 0
 1819 0084 0368     		ldr	r3, [r0]
 1820 0086 DC68     		ldr	r4, [r3, #12]
 1821 0088 14F0040F 		tst	r4, #4
 1822 008c F5D0     		beq	.L144
1110:Drivers/STM32F7xx_HAL_Driver/Src/stm32f7xx_hal_rtc_ex.c ****         
1111:Drivers/STM32F7xx_HAL_Driver/Src/stm32f7xx_hal_rtc_ex.c ****   /* Configure the Wake-up Timer counter */
1112:Drivers/STM32F7xx_HAL_Driver/Src/stm32f7xx_hal_rtc_ex.c ****   hrtc->Instance->WUTR = (uint32_t)WakeUpCounter;
 1823              		.loc 1 1112 0
 1824 008e 5961     		str	r1, [r3, #20]
1113:Drivers/STM32F7xx_HAL_Driver/Src/stm32f7xx_hal_rtc_ex.c **** 
1114:Drivers/STM32F7xx_HAL_Driver/Src/stm32f7xx_hal_rtc_ex.c ****   /* Clear the Wakeup Timer clock source bits in CR register */
ARM GAS  C:\Users\micha\AppData\Local\Temp\ccafMmKQ.s 			page 53


1115:Drivers/STM32F7xx_HAL_Driver/Src/stm32f7xx_hal_rtc_ex.c ****   hrtc->Instance->CR &= (uint32_t)~RTC_CR_WUCKSEL;
 1825              		.loc 1 1115 0
 1826 0090 0168     		ldr	r1, [r0]
 1827              	.LVL114:
 1828 0092 8B68     		ldr	r3, [r1, #8]
 1829              	.LVL115:
 1830 0094 23F00703 		bic	r3, r3, #7
 1831 0098 8B60     		str	r3, [r1, #8]
1116:Drivers/STM32F7xx_HAL_Driver/Src/stm32f7xx_hal_rtc_ex.c **** 
1117:Drivers/STM32F7xx_HAL_Driver/Src/stm32f7xx_hal_rtc_ex.c ****   /* Configure the clock source */
1118:Drivers/STM32F7xx_HAL_Driver/Src/stm32f7xx_hal_rtc_ex.c ****   hrtc->Instance->CR |= (uint32_t)WakeUpClock;
 1832              		.loc 1 1118 0
 1833 009a 0168     		ldr	r1, [r0]
 1834 009c 8B68     		ldr	r3, [r1, #8]
 1835 009e 1A43     		orrs	r2, r2, r3
 1836              	.LVL116:
 1837 00a0 8A60     		str	r2, [r1, #8]
1119:Drivers/STM32F7xx_HAL_Driver/Src/stm32f7xx_hal_rtc_ex.c ****   
1120:Drivers/STM32F7xx_HAL_Driver/Src/stm32f7xx_hal_rtc_ex.c ****   /* RTC WakeUpTimer Interrupt Configuration: EXTI configuration */
1121:Drivers/STM32F7xx_HAL_Driver/Src/stm32f7xx_hal_rtc_ex.c ****   __HAL_RTC_WAKEUPTIMER_EXTI_ENABLE_IT();
 1838              		.loc 1 1121 0
 1839 00a2 1D4B     		ldr	r3, .L152+8
 1840 00a4 1A68     		ldr	r2, [r3]
 1841 00a6 42F48002 		orr	r2, r2, #4194304
 1842 00aa 1A60     		str	r2, [r3]
1122:Drivers/STM32F7xx_HAL_Driver/Src/stm32f7xx_hal_rtc_ex.c ****   
1123:Drivers/STM32F7xx_HAL_Driver/Src/stm32f7xx_hal_rtc_ex.c ****   EXTI->RTSR |= RTC_EXTI_LINE_WAKEUPTIMER_EVENT;
 1843              		.loc 1 1123 0
 1844 00ac 9A68     		ldr	r2, [r3, #8]
 1845 00ae 42F48002 		orr	r2, r2, #4194304
 1846 00b2 9A60     		str	r2, [r3, #8]
1124:Drivers/STM32F7xx_HAL_Driver/Src/stm32f7xx_hal_rtc_ex.c ****   
1125:Drivers/STM32F7xx_HAL_Driver/Src/stm32f7xx_hal_rtc_ex.c ****   /* Clear RTC Wake Up timer Flag */
1126:Drivers/STM32F7xx_HAL_Driver/Src/stm32f7xx_hal_rtc_ex.c ****   __HAL_RTC_WAKEUPTIMER_CLEAR_FLAG(hrtc, RTC_FLAG_WUTF);
 1847              		.loc 1 1126 0
 1848 00b4 0268     		ldr	r2, [r0]
 1849 00b6 D368     		ldr	r3, [r2, #12]
 1850 00b8 DBB2     		uxtb	r3, r3
 1851 00ba 63F49063 		orn	r3, r3, #1152
 1852 00be D360     		str	r3, [r2, #12]
1127:Drivers/STM32F7xx_HAL_Driver/Src/stm32f7xx_hal_rtc_ex.c ****   
1128:Drivers/STM32F7xx_HAL_Driver/Src/stm32f7xx_hal_rtc_ex.c ****   /* Configure the Interrupt in the RTC_CR register */
1129:Drivers/STM32F7xx_HAL_Driver/Src/stm32f7xx_hal_rtc_ex.c ****   __HAL_RTC_WAKEUPTIMER_ENABLE_IT(hrtc,RTC_IT_WUT);
 1853              		.loc 1 1129 0
 1854 00c0 0268     		ldr	r2, [r0]
 1855 00c2 9368     		ldr	r3, [r2, #8]
 1856 00c4 43F48043 		orr	r3, r3, #16384
 1857 00c8 9360     		str	r3, [r2, #8]
1130:Drivers/STM32F7xx_HAL_Driver/Src/stm32f7xx_hal_rtc_ex.c ****   
1131:Drivers/STM32F7xx_HAL_Driver/Src/stm32f7xx_hal_rtc_ex.c ****   /* Enable the Wakeup Timer */
1132:Drivers/STM32F7xx_HAL_Driver/Src/stm32f7xx_hal_rtc_ex.c ****   __HAL_RTC_WAKEUPTIMER_ENABLE(hrtc);
 1858              		.loc 1 1132 0
 1859 00ca 0268     		ldr	r2, [r0]
 1860 00cc 9368     		ldr	r3, [r2, #8]
 1861 00ce 43F48063 		orr	r3, r3, #1024
 1862 00d2 9360     		str	r3, [r2, #8]
1133:Drivers/STM32F7xx_HAL_Driver/Src/stm32f7xx_hal_rtc_ex.c ****     
ARM GAS  C:\Users\micha\AppData\Local\Temp\ccafMmKQ.s 			page 54


1134:Drivers/STM32F7xx_HAL_Driver/Src/stm32f7xx_hal_rtc_ex.c ****   /* Enable the write protection for RTC registers */
1135:Drivers/STM32F7xx_HAL_Driver/Src/stm32f7xx_hal_rtc_ex.c ****   __HAL_RTC_WRITEPROTECTION_ENABLE(hrtc); 
 1863              		.loc 1 1135 0
 1864 00d4 0368     		ldr	r3, [r0]
 1865 00d6 FF22     		movs	r2, #255
 1866 00d8 5A62     		str	r2, [r3, #36]
1136:Drivers/STM32F7xx_HAL_Driver/Src/stm32f7xx_hal_rtc_ex.c ****   
1137:Drivers/STM32F7xx_HAL_Driver/Src/stm32f7xx_hal_rtc_ex.c ****   hrtc->State = HAL_RTC_STATE_READY;   
 1867              		.loc 1 1137 0
 1868 00da 0123     		movs	r3, #1
 1869 00dc 4377     		strb	r3, [r0, #29]
1138:Drivers/STM32F7xx_HAL_Driver/Src/stm32f7xx_hal_rtc_ex.c ****   
1139:Drivers/STM32F7xx_HAL_Driver/Src/stm32f7xx_hal_rtc_ex.c ****   /* Process Unlocked */ 
1140:Drivers/STM32F7xx_HAL_Driver/Src/stm32f7xx_hal_rtc_ex.c ****   __HAL_UNLOCK(hrtc);
 1870              		.loc 1 1140 0
 1871 00de 0023     		movs	r3, #0
 1872 00e0 0377     		strb	r3, [r0, #28]
1141:Drivers/STM32F7xx_HAL_Driver/Src/stm32f7xx_hal_rtc_ex.c ****  
1142:Drivers/STM32F7xx_HAL_Driver/Src/stm32f7xx_hal_rtc_ex.c ****   return HAL_OK;
 1873              		.loc 1 1142 0
 1874 00e2 1846     		mov	r0, r3
 1875              	.LVL117:
 1876 00e4 0FE0     		b	.L139
 1877              	.LVL118:
 1878              	.L150:
1077:Drivers/STM32F7xx_HAL_Driver/Src/stm32f7xx_hal_rtc_ex.c **** 
 1879              		.loc 1 1077 0
 1880 00e6 FF23     		movs	r3, #255
 1881 00e8 6362     		str	r3, [r4, #36]
1079:Drivers/STM32F7xx_HAL_Driver/Src/stm32f7xx_hal_rtc_ex.c **** 
 1882              		.loc 1 1079 0
 1883 00ea 0323     		movs	r3, #3
 1884 00ec 4377     		strb	r3, [r0, #29]
1082:Drivers/STM32F7xx_HAL_Driver/Src/stm32f7xx_hal_rtc_ex.c **** 
 1885              		.loc 1 1082 0
 1886 00ee 0022     		movs	r2, #0
 1887              	.LVL119:
 1888 00f0 0277     		strb	r2, [r0, #28]
1084:Drivers/STM32F7xx_HAL_Driver/Src/stm32f7xx_hal_rtc_ex.c ****       }
 1889              		.loc 1 1084 0
 1890 00f2 1846     		mov	r0, r3
 1891              	.LVL120:
 1892 00f4 07E0     		b	.L139
 1893              	.LVL121:
 1894              	.L151:
1099:Drivers/STM32F7xx_HAL_Driver/Src/stm32f7xx_hal_rtc_ex.c **** 
 1895              		.loc 1 1099 0
 1896 00f6 0368     		ldr	r3, [r0]
 1897 00f8 FF22     		movs	r2, #255
 1898              	.LVL122:
 1899 00fa 5A62     		str	r2, [r3, #36]
1101:Drivers/STM32F7xx_HAL_Driver/Src/stm32f7xx_hal_rtc_ex.c **** 
 1900              		.loc 1 1101 0
 1901 00fc 0323     		movs	r3, #3
 1902 00fe 4377     		strb	r3, [r0, #29]
1104:Drivers/STM32F7xx_HAL_Driver/Src/stm32f7xx_hal_rtc_ex.c **** 
 1903              		.loc 1 1104 0
ARM GAS  C:\Users\micha\AppData\Local\Temp\ccafMmKQ.s 			page 55


 1904 0100 0022     		movs	r2, #0
 1905 0102 0277     		strb	r2, [r0, #28]
1106:Drivers/STM32F7xx_HAL_Driver/Src/stm32f7xx_hal_rtc_ex.c ****     }
 1906              		.loc 1 1106 0
 1907 0104 1846     		mov	r0, r3
 1908              	.LVL123:
 1909              	.L139:
1143:Drivers/STM32F7xx_HAL_Driver/Src/stm32f7xx_hal_rtc_ex.c **** }
 1910              		.loc 1 1143 0
 1911 0106 02B0     		add	sp, sp, #8
 1912              	.LCFI25:
 1913              		.cfi_def_cfa_offset 8
 1914              		@ sp needed
 1915 0108 30BC     		pop	{r4, r5}
 1916              	.LCFI26:
 1917              		.cfi_restore 5
 1918              		.cfi_restore 4
 1919              		.cfi_def_cfa_offset 0
 1920 010a 7047     		bx	lr
 1921              	.LVL124:
 1922              	.L145:
1058:Drivers/STM32F7xx_HAL_Driver/Src/stm32f7xx_hal_rtc_ex.c ****   
 1923              		.loc 1 1058 0
 1924 010c 0220     		movs	r0, #2
 1925              	.LVL125:
 1926              		.loc 1 1143 0
 1927 010e 7047     		bx	lr
 1928              	.L153:
 1929              		.align	2
 1930              	.L152:
 1931 0110 00000000 		.word	SystemCoreClock
 1932 0114 D34D6210 		.word	274877907
 1933 0118 003C0140 		.word	1073822720
 1934              		.cfi_endproc
 1935              	.LFE157:
 1937              		.section	.text.HAL_RTCEx_DeactivateWakeUpTimer,"ax",%progbits
 1938              		.align	1
 1939              		.global	HAL_RTCEx_DeactivateWakeUpTimer
 1940              		.syntax unified
 1941              		.thumb
 1942              		.thumb_func
 1943              		.fpu fpv5-sp-d16
 1945              	HAL_RTCEx_DeactivateWakeUpTimer:
 1946              	.LFB158:
1144:Drivers/STM32F7xx_HAL_Driver/Src/stm32f7xx_hal_rtc_ex.c **** 
1145:Drivers/STM32F7xx_HAL_Driver/Src/stm32f7xx_hal_rtc_ex.c **** /**
1146:Drivers/STM32F7xx_HAL_Driver/Src/stm32f7xx_hal_rtc_ex.c ****   * @brief  Deactivates wake up timer counter.
1147:Drivers/STM32F7xx_HAL_Driver/Src/stm32f7xx_hal_rtc_ex.c ****   * @param  hrtc pointer to a RTC_HandleTypeDef structure that contains
1148:Drivers/STM32F7xx_HAL_Driver/Src/stm32f7xx_hal_rtc_ex.c ****   *                the configuration information for RTC. 
1149:Drivers/STM32F7xx_HAL_Driver/Src/stm32f7xx_hal_rtc_ex.c ****   * @retval HAL status
1150:Drivers/STM32F7xx_HAL_Driver/Src/stm32f7xx_hal_rtc_ex.c ****   */
1151:Drivers/STM32F7xx_HAL_Driver/Src/stm32f7xx_hal_rtc_ex.c **** uint32_t HAL_RTCEx_DeactivateWakeUpTimer(RTC_HandleTypeDef *hrtc)
1152:Drivers/STM32F7xx_HAL_Driver/Src/stm32f7xx_hal_rtc_ex.c **** {
 1947              		.loc 1 1152 0
 1948              		.cfi_startproc
 1949              		@ args = 0, pretend = 0, frame = 0
 1950              		@ frame_needed = 0, uses_anonymous_args = 0
ARM GAS  C:\Users\micha\AppData\Local\Temp\ccafMmKQ.s 			page 56


 1951              	.LVL126:
 1952 0000 38B5     		push	{r3, r4, r5, lr}
 1953              	.LCFI27:
 1954              		.cfi_def_cfa_offset 16
 1955              		.cfi_offset 3, -16
 1956              		.cfi_offset 4, -12
 1957              		.cfi_offset 5, -8
 1958              		.cfi_offset 14, -4
 1959              	.LVL127:
1153:Drivers/STM32F7xx_HAL_Driver/Src/stm32f7xx_hal_rtc_ex.c ****   uint32_t tickstart = 0U;
1154:Drivers/STM32F7xx_HAL_Driver/Src/stm32f7xx_hal_rtc_ex.c ****   
1155:Drivers/STM32F7xx_HAL_Driver/Src/stm32f7xx_hal_rtc_ex.c ****   /* Process Locked */ 
1156:Drivers/STM32F7xx_HAL_Driver/Src/stm32f7xx_hal_rtc_ex.c ****   __HAL_LOCK(hrtc);
 1960              		.loc 1 1156 0
 1961 0002 037F     		ldrb	r3, [r0, #28]	@ zero_extendqisi2
 1962 0004 012B     		cmp	r3, #1
 1963 0006 31D0     		beq	.L158
 1964 0008 0446     		mov	r4, r0
 1965              		.loc 1 1156 0 is_stmt 0 discriminator 2
 1966 000a 0123     		movs	r3, #1
 1967 000c 0377     		strb	r3, [r0, #28]
1157:Drivers/STM32F7xx_HAL_Driver/Src/stm32f7xx_hal_rtc_ex.c ****   
1158:Drivers/STM32F7xx_HAL_Driver/Src/stm32f7xx_hal_rtc_ex.c ****   hrtc->State = HAL_RTC_STATE_BUSY;
 1968              		.loc 1 1158 0 is_stmt 1 discriminator 2
 1969 000e 0223     		movs	r3, #2
 1970 0010 4377     		strb	r3, [r0, #29]
1159:Drivers/STM32F7xx_HAL_Driver/Src/stm32f7xx_hal_rtc_ex.c ****   
1160:Drivers/STM32F7xx_HAL_Driver/Src/stm32f7xx_hal_rtc_ex.c ****   /* Disable the write protection for RTC registers */
1161:Drivers/STM32F7xx_HAL_Driver/Src/stm32f7xx_hal_rtc_ex.c ****   __HAL_RTC_WRITEPROTECTION_DISABLE(hrtc);
 1971              		.loc 1 1161 0 discriminator 2
 1972 0012 0368     		ldr	r3, [r0]
 1973 0014 CA22     		movs	r2, #202
 1974 0016 5A62     		str	r2, [r3, #36]
 1975 0018 0368     		ldr	r3, [r0]
 1976 001a 5322     		movs	r2, #83
 1977 001c 5A62     		str	r2, [r3, #36]
1162:Drivers/STM32F7xx_HAL_Driver/Src/stm32f7xx_hal_rtc_ex.c ****   
1163:Drivers/STM32F7xx_HAL_Driver/Src/stm32f7xx_hal_rtc_ex.c ****   /* Disable the Wakeup Timer */
1164:Drivers/STM32F7xx_HAL_Driver/Src/stm32f7xx_hal_rtc_ex.c ****   __HAL_RTC_WAKEUPTIMER_DISABLE(hrtc);
 1978              		.loc 1 1164 0 discriminator 2
 1979 001e 0268     		ldr	r2, [r0]
 1980 0020 9368     		ldr	r3, [r2, #8]
 1981 0022 23F48063 		bic	r3, r3, #1024
 1982 0026 9360     		str	r3, [r2, #8]
1165:Drivers/STM32F7xx_HAL_Driver/Src/stm32f7xx_hal_rtc_ex.c ****   
1166:Drivers/STM32F7xx_HAL_Driver/Src/stm32f7xx_hal_rtc_ex.c ****   /* In case of interrupt mode is used, the interrupt source must disabled */ 
1167:Drivers/STM32F7xx_HAL_Driver/Src/stm32f7xx_hal_rtc_ex.c ****   __HAL_RTC_WAKEUPTIMER_DISABLE_IT(hrtc,RTC_IT_WUT);
 1983              		.loc 1 1167 0 discriminator 2
 1984 0028 0268     		ldr	r2, [r0]
 1985 002a 9368     		ldr	r3, [r2, #8]
 1986 002c 23F48043 		bic	r3, r3, #16384
 1987 0030 9360     		str	r3, [r2, #8]
1168:Drivers/STM32F7xx_HAL_Driver/Src/stm32f7xx_hal_rtc_ex.c **** 
1169:Drivers/STM32F7xx_HAL_Driver/Src/stm32f7xx_hal_rtc_ex.c ****   /* Get tick */
1170:Drivers/STM32F7xx_HAL_Driver/Src/stm32f7xx_hal_rtc_ex.c ****   tickstart = HAL_GetTick();
 1988              		.loc 1 1170 0 discriminator 2
 1989 0032 FFF7FEFF 		bl	HAL_GetTick
ARM GAS  C:\Users\micha\AppData\Local\Temp\ccafMmKQ.s 			page 57


 1990              	.LVL128:
 1991 0036 0546     		mov	r5, r0
 1992              	.LVL129:
 1993              	.L156:
1171:Drivers/STM32F7xx_HAL_Driver/Src/stm32f7xx_hal_rtc_ex.c **** 
1172:Drivers/STM32F7xx_HAL_Driver/Src/stm32f7xx_hal_rtc_ex.c ****   /* Wait till RTC WUTWF flag is set and if Time out is reached exit */
1173:Drivers/STM32F7xx_HAL_Driver/Src/stm32f7xx_hal_rtc_ex.c ****   while(__HAL_RTC_WAKEUPTIMER_GET_FLAG(hrtc, RTC_FLAG_WUTWF) == RESET)
 1994              		.loc 1 1173 0
 1995 0038 2368     		ldr	r3, [r4]
 1996 003a DA68     		ldr	r2, [r3, #12]
 1997 003c 12F0040F 		tst	r2, #4
 1998 0040 0DD1     		bne	.L160
1174:Drivers/STM32F7xx_HAL_Driver/Src/stm32f7xx_hal_rtc_ex.c ****   {
1175:Drivers/STM32F7xx_HAL_Driver/Src/stm32f7xx_hal_rtc_ex.c ****     if((HAL_GetTick() - tickstart ) > RTC_TIMEOUT_VALUE)
 1999              		.loc 1 1175 0
 2000 0042 FFF7FEFF 		bl	HAL_GetTick
 2001              	.LVL130:
 2002 0046 401B     		subs	r0, r0, r5
 2003 0048 B0F57A7F 		cmp	r0, #1000
 2004 004c F4D9     		bls	.L156
1176:Drivers/STM32F7xx_HAL_Driver/Src/stm32f7xx_hal_rtc_ex.c ****     {
1177:Drivers/STM32F7xx_HAL_Driver/Src/stm32f7xx_hal_rtc_ex.c ****       /* Enable the write protection for RTC registers */
1178:Drivers/STM32F7xx_HAL_Driver/Src/stm32f7xx_hal_rtc_ex.c ****       __HAL_RTC_WRITEPROTECTION_ENABLE(hrtc);
 2005              		.loc 1 1178 0
 2006 004e 2368     		ldr	r3, [r4]
 2007 0050 FF22     		movs	r2, #255
 2008 0052 5A62     		str	r2, [r3, #36]
1179:Drivers/STM32F7xx_HAL_Driver/Src/stm32f7xx_hal_rtc_ex.c ****       
1180:Drivers/STM32F7xx_HAL_Driver/Src/stm32f7xx_hal_rtc_ex.c ****       hrtc->State = HAL_RTC_STATE_TIMEOUT; 
 2009              		.loc 1 1180 0
 2010 0054 0320     		movs	r0, #3
 2011 0056 6077     		strb	r0, [r4, #29]
1181:Drivers/STM32F7xx_HAL_Driver/Src/stm32f7xx_hal_rtc_ex.c ****       
1182:Drivers/STM32F7xx_HAL_Driver/Src/stm32f7xx_hal_rtc_ex.c ****       /* Process Unlocked */ 
1183:Drivers/STM32F7xx_HAL_Driver/Src/stm32f7xx_hal_rtc_ex.c ****       __HAL_UNLOCK(hrtc);
 2012              		.loc 1 1183 0
 2013 0058 0023     		movs	r3, #0
 2014 005a 2377     		strb	r3, [r4, #28]
1184:Drivers/STM32F7xx_HAL_Driver/Src/stm32f7xx_hal_rtc_ex.c ****       
1185:Drivers/STM32F7xx_HAL_Driver/Src/stm32f7xx_hal_rtc_ex.c ****       return HAL_TIMEOUT;
 2015              		.loc 1 1185 0
 2016 005c 05E0     		b	.L154
 2017              	.L160:
1186:Drivers/STM32F7xx_HAL_Driver/Src/stm32f7xx_hal_rtc_ex.c ****     }   
1187:Drivers/STM32F7xx_HAL_Driver/Src/stm32f7xx_hal_rtc_ex.c ****   }
1188:Drivers/STM32F7xx_HAL_Driver/Src/stm32f7xx_hal_rtc_ex.c ****   
1189:Drivers/STM32F7xx_HAL_Driver/Src/stm32f7xx_hal_rtc_ex.c ****   /* Enable the write protection for RTC registers */
1190:Drivers/STM32F7xx_HAL_Driver/Src/stm32f7xx_hal_rtc_ex.c ****   __HAL_RTC_WRITEPROTECTION_ENABLE(hrtc);
 2018              		.loc 1 1190 0
 2019 005e FF22     		movs	r2, #255
 2020 0060 5A62     		str	r2, [r3, #36]
1191:Drivers/STM32F7xx_HAL_Driver/Src/stm32f7xx_hal_rtc_ex.c ****   
1192:Drivers/STM32F7xx_HAL_Driver/Src/stm32f7xx_hal_rtc_ex.c ****   hrtc->State = HAL_RTC_STATE_READY;   
 2021              		.loc 1 1192 0
 2022 0062 0123     		movs	r3, #1
 2023 0064 6377     		strb	r3, [r4, #29]
1193:Drivers/STM32F7xx_HAL_Driver/Src/stm32f7xx_hal_rtc_ex.c ****   
ARM GAS  C:\Users\micha\AppData\Local\Temp\ccafMmKQ.s 			page 58


1194:Drivers/STM32F7xx_HAL_Driver/Src/stm32f7xx_hal_rtc_ex.c ****   /* Process Unlocked */ 
1195:Drivers/STM32F7xx_HAL_Driver/Src/stm32f7xx_hal_rtc_ex.c ****   __HAL_UNLOCK(hrtc);
 2024              		.loc 1 1195 0
 2025 0066 0020     		movs	r0, #0
 2026 0068 2077     		strb	r0, [r4, #28]
 2027              	.LVL131:
 2028              	.L154:
1196:Drivers/STM32F7xx_HAL_Driver/Src/stm32f7xx_hal_rtc_ex.c ****   
1197:Drivers/STM32F7xx_HAL_Driver/Src/stm32f7xx_hal_rtc_ex.c ****   return HAL_OK;
1198:Drivers/STM32F7xx_HAL_Driver/Src/stm32f7xx_hal_rtc_ex.c **** }
 2029              		.loc 1 1198 0
 2030 006a 38BD     		pop	{r3, r4, r5, pc}
 2031              	.LVL132:
 2032              	.L158:
1156:Drivers/STM32F7xx_HAL_Driver/Src/stm32f7xx_hal_rtc_ex.c ****   
 2033              		.loc 1 1156 0
 2034 006c 0220     		movs	r0, #2
 2035              	.LVL133:
 2036 006e FCE7     		b	.L154
 2037              		.cfi_endproc
 2038              	.LFE158:
 2040              		.section	.text.HAL_RTCEx_GetWakeUpTimer,"ax",%progbits
 2041              		.align	1
 2042              		.global	HAL_RTCEx_GetWakeUpTimer
 2043              		.syntax unified
 2044              		.thumb
 2045              		.thumb_func
 2046              		.fpu fpv5-sp-d16
 2048              	HAL_RTCEx_GetWakeUpTimer:
 2049              	.LFB159:
1199:Drivers/STM32F7xx_HAL_Driver/Src/stm32f7xx_hal_rtc_ex.c **** 
1200:Drivers/STM32F7xx_HAL_Driver/Src/stm32f7xx_hal_rtc_ex.c **** /**
1201:Drivers/STM32F7xx_HAL_Driver/Src/stm32f7xx_hal_rtc_ex.c ****   * @brief  Gets wake up timer counter.
1202:Drivers/STM32F7xx_HAL_Driver/Src/stm32f7xx_hal_rtc_ex.c ****   * @param  hrtc pointer to a RTC_HandleTypeDef structure that contains
1203:Drivers/STM32F7xx_HAL_Driver/Src/stm32f7xx_hal_rtc_ex.c ****   *                the configuration information for RTC. 
1204:Drivers/STM32F7xx_HAL_Driver/Src/stm32f7xx_hal_rtc_ex.c ****   * @retval Counter value
1205:Drivers/STM32F7xx_HAL_Driver/Src/stm32f7xx_hal_rtc_ex.c ****   */
1206:Drivers/STM32F7xx_HAL_Driver/Src/stm32f7xx_hal_rtc_ex.c **** uint32_t HAL_RTCEx_GetWakeUpTimer(RTC_HandleTypeDef *hrtc)
1207:Drivers/STM32F7xx_HAL_Driver/Src/stm32f7xx_hal_rtc_ex.c **** {
 2050              		.loc 1 1207 0
 2051              		.cfi_startproc
 2052              		@ args = 0, pretend = 0, frame = 0
 2053              		@ frame_needed = 0, uses_anonymous_args = 0
 2054              		@ link register save eliminated.
 2055              	.LVL134:
1208:Drivers/STM32F7xx_HAL_Driver/Src/stm32f7xx_hal_rtc_ex.c ****   /* Get the counter value */
1209:Drivers/STM32F7xx_HAL_Driver/Src/stm32f7xx_hal_rtc_ex.c ****   return ((uint32_t)(hrtc->Instance->WUTR & RTC_WUTR_WUT)); 
 2056              		.loc 1 1209 0
 2057 0000 0368     		ldr	r3, [r0]
 2058 0002 5869     		ldr	r0, [r3, #20]
 2059              	.LVL135:
1210:Drivers/STM32F7xx_HAL_Driver/Src/stm32f7xx_hal_rtc_ex.c **** }
 2060              		.loc 1 1210 0
 2061 0004 80B2     		uxth	r0, r0
 2062 0006 7047     		bx	lr
 2063              		.cfi_endproc
 2064              	.LFE159:
ARM GAS  C:\Users\micha\AppData\Local\Temp\ccafMmKQ.s 			page 59


 2066              		.section	.text.HAL_RTCEx_WakeUpTimerEventCallback,"ax",%progbits
 2067              		.align	1
 2068              		.weak	HAL_RTCEx_WakeUpTimerEventCallback
 2069              		.syntax unified
 2070              		.thumb
 2071              		.thumb_func
 2072              		.fpu fpv5-sp-d16
 2074              	HAL_RTCEx_WakeUpTimerEventCallback:
 2075              	.LFB161:
1211:Drivers/STM32F7xx_HAL_Driver/Src/stm32f7xx_hal_rtc_ex.c **** 
1212:Drivers/STM32F7xx_HAL_Driver/Src/stm32f7xx_hal_rtc_ex.c **** /**
1213:Drivers/STM32F7xx_HAL_Driver/Src/stm32f7xx_hal_rtc_ex.c ****   * @brief  This function handles Wake Up Timer interrupt request.
1214:Drivers/STM32F7xx_HAL_Driver/Src/stm32f7xx_hal_rtc_ex.c ****   * @param  hrtc pointer to a RTC_HandleTypeDef structure that contains
1215:Drivers/STM32F7xx_HAL_Driver/Src/stm32f7xx_hal_rtc_ex.c ****   *                the configuration information for RTC.
1216:Drivers/STM32F7xx_HAL_Driver/Src/stm32f7xx_hal_rtc_ex.c ****   * @retval None
1217:Drivers/STM32F7xx_HAL_Driver/Src/stm32f7xx_hal_rtc_ex.c ****   */
1218:Drivers/STM32F7xx_HAL_Driver/Src/stm32f7xx_hal_rtc_ex.c **** void HAL_RTCEx_WakeUpTimerIRQHandler(RTC_HandleTypeDef *hrtc)
1219:Drivers/STM32F7xx_HAL_Driver/Src/stm32f7xx_hal_rtc_ex.c **** {  
1220:Drivers/STM32F7xx_HAL_Driver/Src/stm32f7xx_hal_rtc_ex.c ****   if(__HAL_RTC_WAKEUPTIMER_GET_IT(hrtc, RTC_IT_WUT))
1221:Drivers/STM32F7xx_HAL_Driver/Src/stm32f7xx_hal_rtc_ex.c ****   {
1222:Drivers/STM32F7xx_HAL_Driver/Src/stm32f7xx_hal_rtc_ex.c ****     /* Get the status of the Interrupt */
1223:Drivers/STM32F7xx_HAL_Driver/Src/stm32f7xx_hal_rtc_ex.c ****     if((uint32_t)(hrtc->Instance->CR & RTC_IT_WUT) != (uint32_t)RESET)
1224:Drivers/STM32F7xx_HAL_Driver/Src/stm32f7xx_hal_rtc_ex.c ****     {
1225:Drivers/STM32F7xx_HAL_Driver/Src/stm32f7xx_hal_rtc_ex.c ****       /* WAKEUPTIMER callback */ 
1226:Drivers/STM32F7xx_HAL_Driver/Src/stm32f7xx_hal_rtc_ex.c ****       HAL_RTCEx_WakeUpTimerEventCallback(hrtc);
1227:Drivers/STM32F7xx_HAL_Driver/Src/stm32f7xx_hal_rtc_ex.c ****       
1228:Drivers/STM32F7xx_HAL_Driver/Src/stm32f7xx_hal_rtc_ex.c ****       /* Clear the WAKEUPTIMER interrupt pending bit */
1229:Drivers/STM32F7xx_HAL_Driver/Src/stm32f7xx_hal_rtc_ex.c ****       __HAL_RTC_WAKEUPTIMER_CLEAR_FLAG(hrtc, RTC_FLAG_WUTF);
1230:Drivers/STM32F7xx_HAL_Driver/Src/stm32f7xx_hal_rtc_ex.c ****     }
1231:Drivers/STM32F7xx_HAL_Driver/Src/stm32f7xx_hal_rtc_ex.c ****   }
1232:Drivers/STM32F7xx_HAL_Driver/Src/stm32f7xx_hal_rtc_ex.c ****   
1233:Drivers/STM32F7xx_HAL_Driver/Src/stm32f7xx_hal_rtc_ex.c ****   /* Clear the EXTI's line Flag for RTC WakeUpTimer */
1234:Drivers/STM32F7xx_HAL_Driver/Src/stm32f7xx_hal_rtc_ex.c ****   __HAL_RTC_WAKEUPTIMER_EXTI_CLEAR_FLAG();
1235:Drivers/STM32F7xx_HAL_Driver/Src/stm32f7xx_hal_rtc_ex.c ****   
1236:Drivers/STM32F7xx_HAL_Driver/Src/stm32f7xx_hal_rtc_ex.c ****   /* Change RTC state */
1237:Drivers/STM32F7xx_HAL_Driver/Src/stm32f7xx_hal_rtc_ex.c ****   hrtc->State = HAL_RTC_STATE_READY;
1238:Drivers/STM32F7xx_HAL_Driver/Src/stm32f7xx_hal_rtc_ex.c **** }
1239:Drivers/STM32F7xx_HAL_Driver/Src/stm32f7xx_hal_rtc_ex.c **** 
1240:Drivers/STM32F7xx_HAL_Driver/Src/stm32f7xx_hal_rtc_ex.c **** /**
1241:Drivers/STM32F7xx_HAL_Driver/Src/stm32f7xx_hal_rtc_ex.c ****   * @brief  Wake Up Timer callback.
1242:Drivers/STM32F7xx_HAL_Driver/Src/stm32f7xx_hal_rtc_ex.c ****   * @param  hrtc pointer to a RTC_HandleTypeDef structure that contains
1243:Drivers/STM32F7xx_HAL_Driver/Src/stm32f7xx_hal_rtc_ex.c ****   *                the configuration information for RTC.
1244:Drivers/STM32F7xx_HAL_Driver/Src/stm32f7xx_hal_rtc_ex.c ****   * @retval None
1245:Drivers/STM32F7xx_HAL_Driver/Src/stm32f7xx_hal_rtc_ex.c ****   */
1246:Drivers/STM32F7xx_HAL_Driver/Src/stm32f7xx_hal_rtc_ex.c **** __weak void HAL_RTCEx_WakeUpTimerEventCallback(RTC_HandleTypeDef *hrtc)
1247:Drivers/STM32F7xx_HAL_Driver/Src/stm32f7xx_hal_rtc_ex.c **** {
 2076              		.loc 1 1247 0
 2077              		.cfi_startproc
 2078              		@ args = 0, pretend = 0, frame = 0
 2079              		@ frame_needed = 0, uses_anonymous_args = 0
 2080              		@ link register save eliminated.
 2081              	.LVL136:
1248:Drivers/STM32F7xx_HAL_Driver/Src/stm32f7xx_hal_rtc_ex.c ****   /* Prevent unused argument(s) compilation warning */
1249:Drivers/STM32F7xx_HAL_Driver/Src/stm32f7xx_hal_rtc_ex.c ****   UNUSED(hrtc);
1250:Drivers/STM32F7xx_HAL_Driver/Src/stm32f7xx_hal_rtc_ex.c ****   
1251:Drivers/STM32F7xx_HAL_Driver/Src/stm32f7xx_hal_rtc_ex.c ****   /* NOTE : This function Should not be modified, when the callback is needed,
1252:Drivers/STM32F7xx_HAL_Driver/Src/stm32f7xx_hal_rtc_ex.c ****             the HAL_RTC_WakeUpTimerEventCallback could be implemented in the user file
ARM GAS  C:\Users\micha\AppData\Local\Temp\ccafMmKQ.s 			page 60


1253:Drivers/STM32F7xx_HAL_Driver/Src/stm32f7xx_hal_rtc_ex.c ****    */
1254:Drivers/STM32F7xx_HAL_Driver/Src/stm32f7xx_hal_rtc_ex.c **** }
 2082              		.loc 1 1254 0
 2083 0000 7047     		bx	lr
 2084              		.cfi_endproc
 2085              	.LFE161:
 2087              		.section	.text.HAL_RTCEx_WakeUpTimerIRQHandler,"ax",%progbits
 2088              		.align	1
 2089              		.global	HAL_RTCEx_WakeUpTimerIRQHandler
 2090              		.syntax unified
 2091              		.thumb
 2092              		.thumb_func
 2093              		.fpu fpv5-sp-d16
 2095              	HAL_RTCEx_WakeUpTimerIRQHandler:
 2096              	.LFB160:
1219:Drivers/STM32F7xx_HAL_Driver/Src/stm32f7xx_hal_rtc_ex.c ****   if(__HAL_RTC_WAKEUPTIMER_GET_IT(hrtc, RTC_IT_WUT))
 2097              		.loc 1 1219 0
 2098              		.cfi_startproc
 2099              		@ args = 0, pretend = 0, frame = 0
 2100              		@ frame_needed = 0, uses_anonymous_args = 0
 2101              	.LVL137:
 2102 0000 10B5     		push	{r4, lr}
 2103              	.LCFI28:
 2104              		.cfi_def_cfa_offset 8
 2105              		.cfi_offset 4, -8
 2106              		.cfi_offset 14, -4
 2107 0002 0446     		mov	r4, r0
1220:Drivers/STM32F7xx_HAL_Driver/Src/stm32f7xx_hal_rtc_ex.c ****   {
 2108              		.loc 1 1220 0
 2109 0004 0368     		ldr	r3, [r0]
 2110 0006 DA68     		ldr	r2, [r3, #12]
 2111 0008 12F4806F 		tst	r2, #1024
 2112 000c 03D0     		beq	.L164
1223:Drivers/STM32F7xx_HAL_Driver/Src/stm32f7xx_hal_rtc_ex.c ****     {
 2113              		.loc 1 1223 0
 2114 000e 9B68     		ldr	r3, [r3, #8]
 2115 0010 13F4804F 		tst	r3, #16384
 2116 0014 06D1     		bne	.L166
 2117              	.LVL138:
 2118              	.L164:
1234:Drivers/STM32F7xx_HAL_Driver/Src/stm32f7xx_hal_rtc_ex.c ****   
 2119              		.loc 1 1234 0
 2120 0016 084B     		ldr	r3, .L167
 2121 0018 4FF48002 		mov	r2, #4194304
 2122 001c 5A61     		str	r2, [r3, #20]
1237:Drivers/STM32F7xx_HAL_Driver/Src/stm32f7xx_hal_rtc_ex.c **** }
 2123              		.loc 1 1237 0
 2124 001e 0123     		movs	r3, #1
 2125 0020 6377     		strb	r3, [r4, #29]
1238:Drivers/STM32F7xx_HAL_Driver/Src/stm32f7xx_hal_rtc_ex.c **** 
 2126              		.loc 1 1238 0
 2127 0022 10BD     		pop	{r4, pc}
 2128              	.LVL139:
 2129              	.L166:
1226:Drivers/STM32F7xx_HAL_Driver/Src/stm32f7xx_hal_rtc_ex.c ****       
 2130              		.loc 1 1226 0
 2131 0024 FFF7FEFF 		bl	HAL_RTCEx_WakeUpTimerEventCallback
ARM GAS  C:\Users\micha\AppData\Local\Temp\ccafMmKQ.s 			page 61


 2132              	.LVL140:
1229:Drivers/STM32F7xx_HAL_Driver/Src/stm32f7xx_hal_rtc_ex.c ****     }
 2133              		.loc 1 1229 0
 2134 0028 2268     		ldr	r2, [r4]
 2135 002a D368     		ldr	r3, [r2, #12]
 2136 002c DBB2     		uxtb	r3, r3
 2137 002e 63F49063 		orn	r3, r3, #1152
 2138 0032 D360     		str	r3, [r2, #12]
 2139 0034 EFE7     		b	.L164
 2140              	.L168:
 2141 0036 00BF     		.align	2
 2142              	.L167:
 2143 0038 003C0140 		.word	1073822720
 2144              		.cfi_endproc
 2145              	.LFE160:
 2147              		.section	.text.HAL_RTCEx_PollForWakeUpTimerEvent,"ax",%progbits
 2148              		.align	1
 2149              		.global	HAL_RTCEx_PollForWakeUpTimerEvent
 2150              		.syntax unified
 2151              		.thumb
 2152              		.thumb_func
 2153              		.fpu fpv5-sp-d16
 2155              	HAL_RTCEx_PollForWakeUpTimerEvent:
 2156              	.LFB162:
1255:Drivers/STM32F7xx_HAL_Driver/Src/stm32f7xx_hal_rtc_ex.c **** 
1256:Drivers/STM32F7xx_HAL_Driver/Src/stm32f7xx_hal_rtc_ex.c **** /**
1257:Drivers/STM32F7xx_HAL_Driver/Src/stm32f7xx_hal_rtc_ex.c ****   * @brief  This function handles Wake Up Timer Polling.
1258:Drivers/STM32F7xx_HAL_Driver/Src/stm32f7xx_hal_rtc_ex.c ****   * @param  hrtc pointer to a RTC_HandleTypeDef structure that contains
1259:Drivers/STM32F7xx_HAL_Driver/Src/stm32f7xx_hal_rtc_ex.c ****   *                the configuration information for RTC.
1260:Drivers/STM32F7xx_HAL_Driver/Src/stm32f7xx_hal_rtc_ex.c ****   * @param  Timeout Timeout duration
1261:Drivers/STM32F7xx_HAL_Driver/Src/stm32f7xx_hal_rtc_ex.c ****   * @retval HAL status
1262:Drivers/STM32F7xx_HAL_Driver/Src/stm32f7xx_hal_rtc_ex.c ****   */
1263:Drivers/STM32F7xx_HAL_Driver/Src/stm32f7xx_hal_rtc_ex.c **** HAL_StatusTypeDef HAL_RTCEx_PollForWakeUpTimerEvent(RTC_HandleTypeDef *hrtc, uint32_t Timeout)
1264:Drivers/STM32F7xx_HAL_Driver/Src/stm32f7xx_hal_rtc_ex.c **** {  
 2157              		.loc 1 1264 0
 2158              		.cfi_startproc
 2159              		@ args = 0, pretend = 0, frame = 0
 2160              		@ frame_needed = 0, uses_anonymous_args = 0
 2161              	.LVL141:
 2162 0000 70B5     		push	{r4, r5, r6, lr}
 2163              	.LCFI29:
 2164              		.cfi_def_cfa_offset 16
 2165              		.cfi_offset 4, -16
 2166              		.cfi_offset 5, -12
 2167              		.cfi_offset 6, -8
 2168              		.cfi_offset 14, -4
 2169 0002 0446     		mov	r4, r0
 2170 0004 0D46     		mov	r5, r1
 2171              	.LVL142:
1265:Drivers/STM32F7xx_HAL_Driver/Src/stm32f7xx_hal_rtc_ex.c ****   uint32_t tickstart = 0; 
1266:Drivers/STM32F7xx_HAL_Driver/Src/stm32f7xx_hal_rtc_ex.c **** 
1267:Drivers/STM32F7xx_HAL_Driver/Src/stm32f7xx_hal_rtc_ex.c ****   /* Get tick */
1268:Drivers/STM32F7xx_HAL_Driver/Src/stm32f7xx_hal_rtc_ex.c ****   tickstart = HAL_GetTick();
 2172              		.loc 1 1268 0
 2173 0006 FFF7FEFF 		bl	HAL_GetTick
 2174              	.LVL143:
 2175 000a 0646     		mov	r6, r0
ARM GAS  C:\Users\micha\AppData\Local\Temp\ccafMmKQ.s 			page 62


 2176              	.LVL144:
 2177              	.L171:
1269:Drivers/STM32F7xx_HAL_Driver/Src/stm32f7xx_hal_rtc_ex.c **** 
1270:Drivers/STM32F7xx_HAL_Driver/Src/stm32f7xx_hal_rtc_ex.c ****   while(__HAL_RTC_WAKEUPTIMER_GET_FLAG(hrtc, RTC_FLAG_WUTF) == RESET)
 2178              		.loc 1 1270 0
 2179 000c 2368     		ldr	r3, [r4]
 2180 000e DA68     		ldr	r2, [r3, #12]
 2181 0010 12F4806F 		tst	r2, #1024
 2182 0014 0BD1     		bne	.L176
1271:Drivers/STM32F7xx_HAL_Driver/Src/stm32f7xx_hal_rtc_ex.c ****   {
1272:Drivers/STM32F7xx_HAL_Driver/Src/stm32f7xx_hal_rtc_ex.c ****     if(Timeout != HAL_MAX_DELAY)
 2183              		.loc 1 1272 0
 2184 0016 B5F1FF3F 		cmp	r5, #-1
 2185 001a F7D0     		beq	.L171
1273:Drivers/STM32F7xx_HAL_Driver/Src/stm32f7xx_hal_rtc_ex.c ****     {
1274:Drivers/STM32F7xx_HAL_Driver/Src/stm32f7xx_hal_rtc_ex.c ****       if((Timeout == 0)||((HAL_GetTick() - tickstart ) > Timeout))
 2186              		.loc 1 1274 0
 2187 001c 25B1     		cbz	r5, .L172
 2188              		.loc 1 1274 0 is_stmt 0 discriminator 1
 2189 001e FFF7FEFF 		bl	HAL_GetTick
 2190              	.LVL145:
 2191 0022 801B     		subs	r0, r0, r6
 2192 0024 A842     		cmp	r0, r5
 2193 0026 F1D9     		bls	.L171
 2194              	.L172:
1275:Drivers/STM32F7xx_HAL_Driver/Src/stm32f7xx_hal_rtc_ex.c ****       {
1276:Drivers/STM32F7xx_HAL_Driver/Src/stm32f7xx_hal_rtc_ex.c ****         hrtc->State = HAL_RTC_STATE_TIMEOUT;
 2195              		.loc 1 1276 0 is_stmt 1
 2196 0028 0320     		movs	r0, #3
 2197 002a 6077     		strb	r0, [r4, #29]
1277:Drivers/STM32F7xx_HAL_Driver/Src/stm32f7xx_hal_rtc_ex.c ****       
1278:Drivers/STM32F7xx_HAL_Driver/Src/stm32f7xx_hal_rtc_ex.c ****         return HAL_TIMEOUT;
 2198              		.loc 1 1278 0
 2199 002c 07E0     		b	.L173
 2200              	.L176:
1279:Drivers/STM32F7xx_HAL_Driver/Src/stm32f7xx_hal_rtc_ex.c ****       }
1280:Drivers/STM32F7xx_HAL_Driver/Src/stm32f7xx_hal_rtc_ex.c ****     }
1281:Drivers/STM32F7xx_HAL_Driver/Src/stm32f7xx_hal_rtc_ex.c ****   }
1282:Drivers/STM32F7xx_HAL_Driver/Src/stm32f7xx_hal_rtc_ex.c ****   
1283:Drivers/STM32F7xx_HAL_Driver/Src/stm32f7xx_hal_rtc_ex.c ****   /* Clear the WAKEUPTIMER Flag */
1284:Drivers/STM32F7xx_HAL_Driver/Src/stm32f7xx_hal_rtc_ex.c ****   __HAL_RTC_WAKEUPTIMER_CLEAR_FLAG(hrtc, RTC_FLAG_WUTF);
 2201              		.loc 1 1284 0
 2202 002e DA68     		ldr	r2, [r3, #12]
 2203 0030 D2B2     		uxtb	r2, r2
 2204 0032 62F49062 		orn	r2, r2, #1152
 2205 0036 DA60     		str	r2, [r3, #12]
1285:Drivers/STM32F7xx_HAL_Driver/Src/stm32f7xx_hal_rtc_ex.c ****   
1286:Drivers/STM32F7xx_HAL_Driver/Src/stm32f7xx_hal_rtc_ex.c ****   /* Change RTC state */
1287:Drivers/STM32F7xx_HAL_Driver/Src/stm32f7xx_hal_rtc_ex.c ****   hrtc->State = HAL_RTC_STATE_READY;
 2206              		.loc 1 1287 0
 2207 0038 0123     		movs	r3, #1
 2208 003a 6377     		strb	r3, [r4, #29]
1288:Drivers/STM32F7xx_HAL_Driver/Src/stm32f7xx_hal_rtc_ex.c ****   
1289:Drivers/STM32F7xx_HAL_Driver/Src/stm32f7xx_hal_rtc_ex.c ****   return HAL_OK; 
 2209              		.loc 1 1289 0
 2210 003c 0020     		movs	r0, #0
 2211              	.L173:
ARM GAS  C:\Users\micha\AppData\Local\Temp\ccafMmKQ.s 			page 63


1290:Drivers/STM32F7xx_HAL_Driver/Src/stm32f7xx_hal_rtc_ex.c **** }
 2212              		.loc 1 1290 0
 2213 003e 70BD     		pop	{r4, r5, r6, pc}
 2214              		.cfi_endproc
 2215              	.LFE162:
 2217              		.section	.text.HAL_RTCEx_BKUPWrite,"ax",%progbits
 2218              		.align	1
 2219              		.global	HAL_RTCEx_BKUPWrite
 2220              		.syntax unified
 2221              		.thumb
 2222              		.thumb_func
 2223              		.fpu fpv5-sp-d16
 2225              	HAL_RTCEx_BKUPWrite:
 2226              	.LFB163:
1291:Drivers/STM32F7xx_HAL_Driver/Src/stm32f7xx_hal_rtc_ex.c **** 
1292:Drivers/STM32F7xx_HAL_Driver/Src/stm32f7xx_hal_rtc_ex.c **** /**
1293:Drivers/STM32F7xx_HAL_Driver/Src/stm32f7xx_hal_rtc_ex.c ****   * @}
1294:Drivers/STM32F7xx_HAL_Driver/Src/stm32f7xx_hal_rtc_ex.c ****   */
1295:Drivers/STM32F7xx_HAL_Driver/Src/stm32f7xx_hal_rtc_ex.c **** 
1296:Drivers/STM32F7xx_HAL_Driver/Src/stm32f7xx_hal_rtc_ex.c **** 
1297:Drivers/STM32F7xx_HAL_Driver/Src/stm32f7xx_hal_rtc_ex.c **** /** @defgroup RTCEx_Group3 Extension Peripheral Control functions 
1298:Drivers/STM32F7xx_HAL_Driver/Src/stm32f7xx_hal_rtc_ex.c ****  *  @brief   Extension Peripheral Control functions 
1299:Drivers/STM32F7xx_HAL_Driver/Src/stm32f7xx_hal_rtc_ex.c ****  *
1300:Drivers/STM32F7xx_HAL_Driver/Src/stm32f7xx_hal_rtc_ex.c **** @verbatim   
1301:Drivers/STM32F7xx_HAL_Driver/Src/stm32f7xx_hal_rtc_ex.c ****  ===============================================================================
1302:Drivers/STM32F7xx_HAL_Driver/Src/stm32f7xx_hal_rtc_ex.c ****               ##### Extension Peripheral Control functions #####
1303:Drivers/STM32F7xx_HAL_Driver/Src/stm32f7xx_hal_rtc_ex.c ****  ===============================================================================  
1304:Drivers/STM32F7xx_HAL_Driver/Src/stm32f7xx_hal_rtc_ex.c ****     [..]
1305:Drivers/STM32F7xx_HAL_Driver/Src/stm32f7xx_hal_rtc_ex.c ****     This subsection provides functions allowing to
1306:Drivers/STM32F7xx_HAL_Driver/Src/stm32f7xx_hal_rtc_ex.c ****       (+) Write a data in a specified RTC Backup data register
1307:Drivers/STM32F7xx_HAL_Driver/Src/stm32f7xx_hal_rtc_ex.c ****       (+) Read a data in a specified RTC Backup data register
1308:Drivers/STM32F7xx_HAL_Driver/Src/stm32f7xx_hal_rtc_ex.c ****       (+) Set the Coarse calibration parameters.
1309:Drivers/STM32F7xx_HAL_Driver/Src/stm32f7xx_hal_rtc_ex.c ****       (+) Deactivate the Coarse calibration parameters
1310:Drivers/STM32F7xx_HAL_Driver/Src/stm32f7xx_hal_rtc_ex.c ****       (+) Set the Smooth calibration parameters.
1311:Drivers/STM32F7xx_HAL_Driver/Src/stm32f7xx_hal_rtc_ex.c ****       (+) Configure the Synchronization Shift Control Settings.
1312:Drivers/STM32F7xx_HAL_Driver/Src/stm32f7xx_hal_rtc_ex.c ****       (+) Configure the Calibration Pinout (RTC_CALIB) Selection (1Hz or 512Hz).
1313:Drivers/STM32F7xx_HAL_Driver/Src/stm32f7xx_hal_rtc_ex.c ****       (+) Deactivate the Calibration Pinout (RTC_CALIB) Selection (1Hz or 512Hz).
1314:Drivers/STM32F7xx_HAL_Driver/Src/stm32f7xx_hal_rtc_ex.c ****       (+) Enable the RTC reference clock detection.
1315:Drivers/STM32F7xx_HAL_Driver/Src/stm32f7xx_hal_rtc_ex.c ****       (+) Disable the RTC reference clock detection.
1316:Drivers/STM32F7xx_HAL_Driver/Src/stm32f7xx_hal_rtc_ex.c ****       (+) Enable the Bypass Shadow feature.
1317:Drivers/STM32F7xx_HAL_Driver/Src/stm32f7xx_hal_rtc_ex.c ****       (+) Disable the Bypass Shadow feature.
1318:Drivers/STM32F7xx_HAL_Driver/Src/stm32f7xx_hal_rtc_ex.c **** 
1319:Drivers/STM32F7xx_HAL_Driver/Src/stm32f7xx_hal_rtc_ex.c **** @endverbatim
1320:Drivers/STM32F7xx_HAL_Driver/Src/stm32f7xx_hal_rtc_ex.c ****   * @{
1321:Drivers/STM32F7xx_HAL_Driver/Src/stm32f7xx_hal_rtc_ex.c ****   */
1322:Drivers/STM32F7xx_HAL_Driver/Src/stm32f7xx_hal_rtc_ex.c **** 
1323:Drivers/STM32F7xx_HAL_Driver/Src/stm32f7xx_hal_rtc_ex.c **** /**
1324:Drivers/STM32F7xx_HAL_Driver/Src/stm32f7xx_hal_rtc_ex.c ****   * @brief  Writes a data in a specified RTC Backup data register.
1325:Drivers/STM32F7xx_HAL_Driver/Src/stm32f7xx_hal_rtc_ex.c ****   * @param  hrtc pointer to a RTC_HandleTypeDef structure that contains
1326:Drivers/STM32F7xx_HAL_Driver/Src/stm32f7xx_hal_rtc_ex.c ****   *                the configuration information for RTC. 
1327:Drivers/STM32F7xx_HAL_Driver/Src/stm32f7xx_hal_rtc_ex.c ****   * @param  BackupRegister RTC Backup data Register number.
1328:Drivers/STM32F7xx_HAL_Driver/Src/stm32f7xx_hal_rtc_ex.c ****   *          This parameter can be: RTC_BKP_DRx where x can be from 0 to 19 to 
1329:Drivers/STM32F7xx_HAL_Driver/Src/stm32f7xx_hal_rtc_ex.c ****   *                                 specify the register.
1330:Drivers/STM32F7xx_HAL_Driver/Src/stm32f7xx_hal_rtc_ex.c ****   * @param  Data Data to be written in the specified RTC Backup data register.                     
1331:Drivers/STM32F7xx_HAL_Driver/Src/stm32f7xx_hal_rtc_ex.c ****   * @retval None
1332:Drivers/STM32F7xx_HAL_Driver/Src/stm32f7xx_hal_rtc_ex.c ****   */
1333:Drivers/STM32F7xx_HAL_Driver/Src/stm32f7xx_hal_rtc_ex.c **** void HAL_RTCEx_BKUPWrite(RTC_HandleTypeDef *hrtc, uint32_t BackupRegister, uint32_t Data)
ARM GAS  C:\Users\micha\AppData\Local\Temp\ccafMmKQ.s 			page 64


1334:Drivers/STM32F7xx_HAL_Driver/Src/stm32f7xx_hal_rtc_ex.c **** {
 2227              		.loc 1 1334 0
 2228              		.cfi_startproc
 2229              		@ args = 0, pretend = 0, frame = 0
 2230              		@ frame_needed = 0, uses_anonymous_args = 0
 2231              		@ link register save eliminated.
 2232              	.LVL146:
1335:Drivers/STM32F7xx_HAL_Driver/Src/stm32f7xx_hal_rtc_ex.c ****   uint32_t tmp = 0;
1336:Drivers/STM32F7xx_HAL_Driver/Src/stm32f7xx_hal_rtc_ex.c ****   
1337:Drivers/STM32F7xx_HAL_Driver/Src/stm32f7xx_hal_rtc_ex.c ****   /* Check the parameters */
1338:Drivers/STM32F7xx_HAL_Driver/Src/stm32f7xx_hal_rtc_ex.c ****   assert_param(IS_RTC_BKP(BackupRegister));
1339:Drivers/STM32F7xx_HAL_Driver/Src/stm32f7xx_hal_rtc_ex.c ****   
1340:Drivers/STM32F7xx_HAL_Driver/Src/stm32f7xx_hal_rtc_ex.c ****   tmp = (uint32_t)&(hrtc->Instance->BKP0R);
 2233              		.loc 1 1340 0
 2234 0000 0368     		ldr	r3, [r0]
 2235 0002 5033     		adds	r3, r3, #80
 2236              	.LVL147:
1341:Drivers/STM32F7xx_HAL_Driver/Src/stm32f7xx_hal_rtc_ex.c ****   tmp += (BackupRegister * 4);
1342:Drivers/STM32F7xx_HAL_Driver/Src/stm32f7xx_hal_rtc_ex.c ****   
1343:Drivers/STM32F7xx_HAL_Driver/Src/stm32f7xx_hal_rtc_ex.c ****   /* Write the specified register */
1344:Drivers/STM32F7xx_HAL_Driver/Src/stm32f7xx_hal_rtc_ex.c ****   *(__IO uint32_t *)tmp = (uint32_t)Data;
 2237              		.loc 1 1344 0
 2238 0004 43F82120 		str	r2, [r3, r1, lsl #2]
1345:Drivers/STM32F7xx_HAL_Driver/Src/stm32f7xx_hal_rtc_ex.c **** }
 2239              		.loc 1 1345 0
 2240 0008 7047     		bx	lr
 2241              		.cfi_endproc
 2242              	.LFE163:
 2244              		.section	.text.HAL_RTCEx_BKUPRead,"ax",%progbits
 2245              		.align	1
 2246              		.global	HAL_RTCEx_BKUPRead
 2247              		.syntax unified
 2248              		.thumb
 2249              		.thumb_func
 2250              		.fpu fpv5-sp-d16
 2252              	HAL_RTCEx_BKUPRead:
 2253              	.LFB164:
1346:Drivers/STM32F7xx_HAL_Driver/Src/stm32f7xx_hal_rtc_ex.c **** 
1347:Drivers/STM32F7xx_HAL_Driver/Src/stm32f7xx_hal_rtc_ex.c **** /**
1348:Drivers/STM32F7xx_HAL_Driver/Src/stm32f7xx_hal_rtc_ex.c ****   * @brief  Reads data from the specified RTC Backup data Register.
1349:Drivers/STM32F7xx_HAL_Driver/Src/stm32f7xx_hal_rtc_ex.c ****   * @param  hrtc pointer to a RTC_HandleTypeDef structure that contains
1350:Drivers/STM32F7xx_HAL_Driver/Src/stm32f7xx_hal_rtc_ex.c ****   *                the configuration information for RTC. 
1351:Drivers/STM32F7xx_HAL_Driver/Src/stm32f7xx_hal_rtc_ex.c ****   * @param  BackupRegister RTC Backup data Register number.
1352:Drivers/STM32F7xx_HAL_Driver/Src/stm32f7xx_hal_rtc_ex.c ****   *          This parameter can be: RTC_BKP_DRx where x can be from 0 to 19 to 
1353:Drivers/STM32F7xx_HAL_Driver/Src/stm32f7xx_hal_rtc_ex.c ****   *                                 specify the register.                   
1354:Drivers/STM32F7xx_HAL_Driver/Src/stm32f7xx_hal_rtc_ex.c ****   * @retval Read value
1355:Drivers/STM32F7xx_HAL_Driver/Src/stm32f7xx_hal_rtc_ex.c ****   */
1356:Drivers/STM32F7xx_HAL_Driver/Src/stm32f7xx_hal_rtc_ex.c **** uint32_t HAL_RTCEx_BKUPRead(RTC_HandleTypeDef *hrtc, uint32_t BackupRegister)
1357:Drivers/STM32F7xx_HAL_Driver/Src/stm32f7xx_hal_rtc_ex.c **** {
 2254              		.loc 1 1357 0
 2255              		.cfi_startproc
 2256              		@ args = 0, pretend = 0, frame = 0
 2257              		@ frame_needed = 0, uses_anonymous_args = 0
 2258              		@ link register save eliminated.
 2259              	.LVL148:
1358:Drivers/STM32F7xx_HAL_Driver/Src/stm32f7xx_hal_rtc_ex.c ****   uint32_t tmp = 0;
1359:Drivers/STM32F7xx_HAL_Driver/Src/stm32f7xx_hal_rtc_ex.c ****   
ARM GAS  C:\Users\micha\AppData\Local\Temp\ccafMmKQ.s 			page 65


1360:Drivers/STM32F7xx_HAL_Driver/Src/stm32f7xx_hal_rtc_ex.c ****   /* Check the parameters */
1361:Drivers/STM32F7xx_HAL_Driver/Src/stm32f7xx_hal_rtc_ex.c ****   assert_param(IS_RTC_BKP(BackupRegister));
1362:Drivers/STM32F7xx_HAL_Driver/Src/stm32f7xx_hal_rtc_ex.c **** 
1363:Drivers/STM32F7xx_HAL_Driver/Src/stm32f7xx_hal_rtc_ex.c ****   tmp = (uint32_t)&(hrtc->Instance->BKP0R);
 2260              		.loc 1 1363 0
 2261 0000 0368     		ldr	r3, [r0]
 2262 0002 5033     		adds	r3, r3, #80
 2263              	.LVL149:
1364:Drivers/STM32F7xx_HAL_Driver/Src/stm32f7xx_hal_rtc_ex.c ****   tmp += (BackupRegister * 4);
1365:Drivers/STM32F7xx_HAL_Driver/Src/stm32f7xx_hal_rtc_ex.c ****   
1366:Drivers/STM32F7xx_HAL_Driver/Src/stm32f7xx_hal_rtc_ex.c ****   /* Read the specified register */
1367:Drivers/STM32F7xx_HAL_Driver/Src/stm32f7xx_hal_rtc_ex.c ****   return (*(__IO uint32_t *)tmp);
 2264              		.loc 1 1367 0
 2265 0004 53F82100 		ldr	r0, [r3, r1, lsl #2]
 2266              	.LVL150:
1368:Drivers/STM32F7xx_HAL_Driver/Src/stm32f7xx_hal_rtc_ex.c **** }
 2267              		.loc 1 1368 0
 2268 0008 7047     		bx	lr
 2269              		.cfi_endproc
 2270              	.LFE164:
 2272              		.section	.text.HAL_RTCEx_SetSmoothCalib,"ax",%progbits
 2273              		.align	1
 2274              		.global	HAL_RTCEx_SetSmoothCalib
 2275              		.syntax unified
 2276              		.thumb
 2277              		.thumb_func
 2278              		.fpu fpv5-sp-d16
 2280              	HAL_RTCEx_SetSmoothCalib:
 2281              	.LFB165:
1369:Drivers/STM32F7xx_HAL_Driver/Src/stm32f7xx_hal_rtc_ex.c **** 
1370:Drivers/STM32F7xx_HAL_Driver/Src/stm32f7xx_hal_rtc_ex.c **** /**
1371:Drivers/STM32F7xx_HAL_Driver/Src/stm32f7xx_hal_rtc_ex.c ****   * @brief  Sets the Smooth calibration parameters.
1372:Drivers/STM32F7xx_HAL_Driver/Src/stm32f7xx_hal_rtc_ex.c ****   * @param  hrtc pointer to a RTC_HandleTypeDef structure that contains
1373:Drivers/STM32F7xx_HAL_Driver/Src/stm32f7xx_hal_rtc_ex.c ****   *                the configuration information for RTC.  
1374:Drivers/STM32F7xx_HAL_Driver/Src/stm32f7xx_hal_rtc_ex.c ****   * @param  SmoothCalibPeriod Select the Smooth Calibration Period.
1375:Drivers/STM32F7xx_HAL_Driver/Src/stm32f7xx_hal_rtc_ex.c ****   *          This parameter can be can be one of the following values :
1376:Drivers/STM32F7xx_HAL_Driver/Src/stm32f7xx_hal_rtc_ex.c ****   *             @arg RTC_SMOOTHCALIB_PERIOD_32SEC: The smooth calibration period is 32s.
1377:Drivers/STM32F7xx_HAL_Driver/Src/stm32f7xx_hal_rtc_ex.c ****   *             @arg RTC_SMOOTHCALIB_PERIOD_16SEC: The smooth calibration period is 16s.
1378:Drivers/STM32F7xx_HAL_Driver/Src/stm32f7xx_hal_rtc_ex.c ****   *             @arg RTC_SMOOTHCALIB_PERIOD_8SEC: The smooth calibration period is 8s.
1379:Drivers/STM32F7xx_HAL_Driver/Src/stm32f7xx_hal_rtc_ex.c ****   * @param  SmoothCalibPlusPulses Select to Set or reset the CALP bit.
1380:Drivers/STM32F7xx_HAL_Driver/Src/stm32f7xx_hal_rtc_ex.c ****   *          This parameter can be one of the following values:
1381:Drivers/STM32F7xx_HAL_Driver/Src/stm32f7xx_hal_rtc_ex.c ****   *             @arg RTC_SMOOTHCALIB_PLUSPULSES_SET: Add one RTCCLK pulses every 2*11 pulses.
1382:Drivers/STM32F7xx_HAL_Driver/Src/stm32f7xx_hal_rtc_ex.c ****   *             @arg RTC_SMOOTHCALIB_PLUSPULSES_RESET: No RTCCLK pulses are added.
1383:Drivers/STM32F7xx_HAL_Driver/Src/stm32f7xx_hal_rtc_ex.c ****   * @param  SmouthCalibMinusPulsesValue Select the value of CALM[80] bits.
1384:Drivers/STM32F7xx_HAL_Driver/Src/stm32f7xx_hal_rtc_ex.c ****   *          This parameter can be one any value from 0 to 0x000001FF.
1385:Drivers/STM32F7xx_HAL_Driver/Src/stm32f7xx_hal_rtc_ex.c ****   * @note   To deactivate the smooth calibration, the field SmoothCalibPlusPulses 
1386:Drivers/STM32F7xx_HAL_Driver/Src/stm32f7xx_hal_rtc_ex.c ****   *         must be equal to SMOOTHCALIB_PLUSPULSES_RESET and the field 
1387:Drivers/STM32F7xx_HAL_Driver/Src/stm32f7xx_hal_rtc_ex.c ****   *         SmouthCalibMinusPulsesValue must be equal to 0.  
1388:Drivers/STM32F7xx_HAL_Driver/Src/stm32f7xx_hal_rtc_ex.c ****   * @retval HAL status
1389:Drivers/STM32F7xx_HAL_Driver/Src/stm32f7xx_hal_rtc_ex.c ****   */
1390:Drivers/STM32F7xx_HAL_Driver/Src/stm32f7xx_hal_rtc_ex.c **** HAL_StatusTypeDef HAL_RTCEx_SetSmoothCalib(RTC_HandleTypeDef* hrtc, uint32_t SmoothCalibPeriod, uin
1391:Drivers/STM32F7xx_HAL_Driver/Src/stm32f7xx_hal_rtc_ex.c **** {
 2282              		.loc 1 1391 0
 2283              		.cfi_startproc
 2284              		@ args = 0, pretend = 0, frame = 0
 2285              		@ frame_needed = 0, uses_anonymous_args = 0
 2286              	.LVL151:
ARM GAS  C:\Users\micha\AppData\Local\Temp\ccafMmKQ.s 			page 66


 2287 0000 2DE9F041 		push	{r4, r5, r6, r7, r8, lr}
 2288              	.LCFI30:
 2289              		.cfi_def_cfa_offset 24
 2290              		.cfi_offset 4, -24
 2291              		.cfi_offset 5, -20
 2292              		.cfi_offset 6, -16
 2293              		.cfi_offset 7, -12
 2294              		.cfi_offset 8, -8
 2295              		.cfi_offset 14, -4
 2296              	.LVL152:
1392:Drivers/STM32F7xx_HAL_Driver/Src/stm32f7xx_hal_rtc_ex.c ****   uint32_t tickstart = 0;
1393:Drivers/STM32F7xx_HAL_Driver/Src/stm32f7xx_hal_rtc_ex.c ****   
1394:Drivers/STM32F7xx_HAL_Driver/Src/stm32f7xx_hal_rtc_ex.c ****   /* Check the parameters */
1395:Drivers/STM32F7xx_HAL_Driver/Src/stm32f7xx_hal_rtc_ex.c ****   assert_param(IS_RTC_SMOOTH_CALIB_PERIOD(SmoothCalibPeriod));
1396:Drivers/STM32F7xx_HAL_Driver/Src/stm32f7xx_hal_rtc_ex.c ****   assert_param(IS_RTC_SMOOTH_CALIB_PLUS(SmoothCalibPlusPulses));
1397:Drivers/STM32F7xx_HAL_Driver/Src/stm32f7xx_hal_rtc_ex.c ****   assert_param(IS_RTC_SMOOTH_CALIB_MINUS(SmouthCalibMinusPulsesValue));
1398:Drivers/STM32F7xx_HAL_Driver/Src/stm32f7xx_hal_rtc_ex.c ****   
1399:Drivers/STM32F7xx_HAL_Driver/Src/stm32f7xx_hal_rtc_ex.c ****   /* Process Locked */ 
1400:Drivers/STM32F7xx_HAL_Driver/Src/stm32f7xx_hal_rtc_ex.c ****   __HAL_LOCK(hrtc);
 2297              		.loc 1 1400 0
 2298 0004 047F     		ldrb	r4, [r0, #28]	@ zero_extendqisi2
 2299 0006 012C     		cmp	r4, #1
 2300 0008 36D0     		beq	.L184
 2301 000a 1E46     		mov	r6, r3
 2302 000c 1746     		mov	r7, r2
 2303 000e 0D46     		mov	r5, r1
 2304 0010 0446     		mov	r4, r0
 2305              		.loc 1 1400 0 is_stmt 0 discriminator 2
 2306 0012 0123     		movs	r3, #1
 2307              	.LVL153:
 2308 0014 0377     		strb	r3, [r0, #28]
1401:Drivers/STM32F7xx_HAL_Driver/Src/stm32f7xx_hal_rtc_ex.c ****   
1402:Drivers/STM32F7xx_HAL_Driver/Src/stm32f7xx_hal_rtc_ex.c ****   hrtc->State = HAL_RTC_STATE_BUSY;
 2309              		.loc 1 1402 0 is_stmt 1 discriminator 2
 2310 0016 0223     		movs	r3, #2
 2311 0018 4377     		strb	r3, [r0, #29]
1403:Drivers/STM32F7xx_HAL_Driver/Src/stm32f7xx_hal_rtc_ex.c ****   
1404:Drivers/STM32F7xx_HAL_Driver/Src/stm32f7xx_hal_rtc_ex.c ****   /* Disable the write protection for RTC registers */
1405:Drivers/STM32F7xx_HAL_Driver/Src/stm32f7xx_hal_rtc_ex.c ****   __HAL_RTC_WRITEPROTECTION_DISABLE(hrtc);
 2312              		.loc 1 1405 0 discriminator 2
 2313 001a 0368     		ldr	r3, [r0]
 2314 001c CA22     		movs	r2, #202
 2315              	.LVL154:
 2316 001e 5A62     		str	r2, [r3, #36]
 2317 0020 0368     		ldr	r3, [r0]
 2318 0022 5322     		movs	r2, #83
 2319 0024 5A62     		str	r2, [r3, #36]
1406:Drivers/STM32F7xx_HAL_Driver/Src/stm32f7xx_hal_rtc_ex.c ****   
1407:Drivers/STM32F7xx_HAL_Driver/Src/stm32f7xx_hal_rtc_ex.c ****   /* check if a calibration is pending*/
1408:Drivers/STM32F7xx_HAL_Driver/Src/stm32f7xx_hal_rtc_ex.c ****   if((hrtc->Instance->ISR & RTC_ISR_RECALPF) != RESET)
 2320              		.loc 1 1408 0 discriminator 2
 2321 0026 0368     		ldr	r3, [r0]
 2322 0028 DB68     		ldr	r3, [r3, #12]
 2323 002a 13F4803F 		tst	r3, #65536
 2324 002e 0CD1     		bne	.L186
 2325              	.LVL155:
 2326              	.L181:
ARM GAS  C:\Users\micha\AppData\Local\Temp\ccafMmKQ.s 			page 67


1409:Drivers/STM32F7xx_HAL_Driver/Src/stm32f7xx_hal_rtc_ex.c ****   {
1410:Drivers/STM32F7xx_HAL_Driver/Src/stm32f7xx_hal_rtc_ex.c ****   /* Get tick */
1411:Drivers/STM32F7xx_HAL_Driver/Src/stm32f7xx_hal_rtc_ex.c ****   tickstart = HAL_GetTick();
1412:Drivers/STM32F7xx_HAL_Driver/Src/stm32f7xx_hal_rtc_ex.c **** 
1413:Drivers/STM32F7xx_HAL_Driver/Src/stm32f7xx_hal_rtc_ex.c ****     /* check if a calibration is pending*/
1414:Drivers/STM32F7xx_HAL_Driver/Src/stm32f7xx_hal_rtc_ex.c ****     while((hrtc->Instance->ISR & RTC_ISR_RECALPF) != RESET)
1415:Drivers/STM32F7xx_HAL_Driver/Src/stm32f7xx_hal_rtc_ex.c ****     {
1416:Drivers/STM32F7xx_HAL_Driver/Src/stm32f7xx_hal_rtc_ex.c ****       if((HAL_GetTick() - tickstart ) > RTC_TIMEOUT_VALUE)
1417:Drivers/STM32F7xx_HAL_Driver/Src/stm32f7xx_hal_rtc_ex.c ****       {
1418:Drivers/STM32F7xx_HAL_Driver/Src/stm32f7xx_hal_rtc_ex.c ****         /* Enable the write protection for RTC registers */
1419:Drivers/STM32F7xx_HAL_Driver/Src/stm32f7xx_hal_rtc_ex.c ****         __HAL_RTC_WRITEPROTECTION_ENABLE(hrtc);
1420:Drivers/STM32F7xx_HAL_Driver/Src/stm32f7xx_hal_rtc_ex.c ****         
1421:Drivers/STM32F7xx_HAL_Driver/Src/stm32f7xx_hal_rtc_ex.c ****         /* Change RTC state */
1422:Drivers/STM32F7xx_HAL_Driver/Src/stm32f7xx_hal_rtc_ex.c ****         hrtc->State = HAL_RTC_STATE_TIMEOUT; 
1423:Drivers/STM32F7xx_HAL_Driver/Src/stm32f7xx_hal_rtc_ex.c ****         
1424:Drivers/STM32F7xx_HAL_Driver/Src/stm32f7xx_hal_rtc_ex.c ****         /* Process Unlocked */ 
1425:Drivers/STM32F7xx_HAL_Driver/Src/stm32f7xx_hal_rtc_ex.c ****         __HAL_UNLOCK(hrtc);
1426:Drivers/STM32F7xx_HAL_Driver/Src/stm32f7xx_hal_rtc_ex.c ****         
1427:Drivers/STM32F7xx_HAL_Driver/Src/stm32f7xx_hal_rtc_ex.c ****         return HAL_TIMEOUT;
1428:Drivers/STM32F7xx_HAL_Driver/Src/stm32f7xx_hal_rtc_ex.c ****       }
1429:Drivers/STM32F7xx_HAL_Driver/Src/stm32f7xx_hal_rtc_ex.c ****     }
1430:Drivers/STM32F7xx_HAL_Driver/Src/stm32f7xx_hal_rtc_ex.c ****   }
1431:Drivers/STM32F7xx_HAL_Driver/Src/stm32f7xx_hal_rtc_ex.c ****   
1432:Drivers/STM32F7xx_HAL_Driver/Src/stm32f7xx_hal_rtc_ex.c ****   /* Configure the Smooth calibration settings */
1433:Drivers/STM32F7xx_HAL_Driver/Src/stm32f7xx_hal_rtc_ex.c ****   hrtc->Instance->CALR = (uint32_t)((uint32_t)SmoothCalibPeriod | (uint32_t)SmoothCalibPlusPulses |
 2327              		.loc 1 1433 0
 2328 0030 3D43     		orrs	r5, r5, r7
 2329              	.LVL156:
 2330 0032 2368     		ldr	r3, [r4]
 2331 0034 3543     		orrs	r5, r5, r6
 2332 0036 DD63     		str	r5, [r3, #60]
1434:Drivers/STM32F7xx_HAL_Driver/Src/stm32f7xx_hal_rtc_ex.c ****   
1435:Drivers/STM32F7xx_HAL_Driver/Src/stm32f7xx_hal_rtc_ex.c ****   /* Enable the write protection for RTC registers */
1436:Drivers/STM32F7xx_HAL_Driver/Src/stm32f7xx_hal_rtc_ex.c ****   __HAL_RTC_WRITEPROTECTION_ENABLE(hrtc);
 2333              		.loc 1 1436 0
 2334 0038 2368     		ldr	r3, [r4]
 2335 003a FF22     		movs	r2, #255
 2336 003c 5A62     		str	r2, [r3, #36]
1437:Drivers/STM32F7xx_HAL_Driver/Src/stm32f7xx_hal_rtc_ex.c ****   
1438:Drivers/STM32F7xx_HAL_Driver/Src/stm32f7xx_hal_rtc_ex.c ****   /* Change RTC state */
1439:Drivers/STM32F7xx_HAL_Driver/Src/stm32f7xx_hal_rtc_ex.c ****   hrtc->State = HAL_RTC_STATE_READY; 
 2337              		.loc 1 1439 0
 2338 003e 0123     		movs	r3, #1
 2339 0040 6377     		strb	r3, [r4, #29]
1440:Drivers/STM32F7xx_HAL_Driver/Src/stm32f7xx_hal_rtc_ex.c ****   
1441:Drivers/STM32F7xx_HAL_Driver/Src/stm32f7xx_hal_rtc_ex.c ****   /* Process Unlocked */ 
1442:Drivers/STM32F7xx_HAL_Driver/Src/stm32f7xx_hal_rtc_ex.c ****   __HAL_UNLOCK(hrtc);
 2340              		.loc 1 1442 0
 2341 0042 0020     		movs	r0, #0
 2342 0044 2077     		strb	r0, [r4, #28]
 2343              	.LVL157:
 2344              	.L180:
1443:Drivers/STM32F7xx_HAL_Driver/Src/stm32f7xx_hal_rtc_ex.c ****   
1444:Drivers/STM32F7xx_HAL_Driver/Src/stm32f7xx_hal_rtc_ex.c ****   return HAL_OK;
1445:Drivers/STM32F7xx_HAL_Driver/Src/stm32f7xx_hal_rtc_ex.c **** }
 2345              		.loc 1 1445 0
 2346 0046 BDE8F081 		pop	{r4, r5, r6, r7, r8, pc}
ARM GAS  C:\Users\micha\AppData\Local\Temp\ccafMmKQ.s 			page 68


 2347              	.LVL158:
 2348              	.L186:
1411:Drivers/STM32F7xx_HAL_Driver/Src/stm32f7xx_hal_rtc_ex.c **** 
 2349              		.loc 1 1411 0
 2350 004a FFF7FEFF 		bl	HAL_GetTick
 2351              	.LVL159:
 2352 004e 8046     		mov	r8, r0
 2353              	.LVL160:
 2354              	.L182:
1414:Drivers/STM32F7xx_HAL_Driver/Src/stm32f7xx_hal_rtc_ex.c ****     {
 2355              		.loc 1 1414 0
 2356 0050 2168     		ldr	r1, [r4]
 2357 0052 C968     		ldr	r1, [r1, #12]
 2358 0054 11F4803F 		tst	r1, #65536
 2359 0058 EAD0     		beq	.L181
1416:Drivers/STM32F7xx_HAL_Driver/Src/stm32f7xx_hal_rtc_ex.c ****       {
 2360              		.loc 1 1416 0
 2361 005a FFF7FEFF 		bl	HAL_GetTick
 2362              	.LVL161:
 2363 005e A0EB0800 		sub	r0, r0, r8
 2364 0062 B0F57A7F 		cmp	r0, #1000
 2365 0066 F3D9     		bls	.L182
1419:Drivers/STM32F7xx_HAL_Driver/Src/stm32f7xx_hal_rtc_ex.c ****         
 2366              		.loc 1 1419 0
 2367 0068 2368     		ldr	r3, [r4]
 2368 006a FF22     		movs	r2, #255
 2369 006c 5A62     		str	r2, [r3, #36]
1422:Drivers/STM32F7xx_HAL_Driver/Src/stm32f7xx_hal_rtc_ex.c ****         
 2370              		.loc 1 1422 0
 2371 006e 0320     		movs	r0, #3
 2372 0070 6077     		strb	r0, [r4, #29]
1425:Drivers/STM32F7xx_HAL_Driver/Src/stm32f7xx_hal_rtc_ex.c ****         
 2373              		.loc 1 1425 0
 2374 0072 0023     		movs	r3, #0
 2375 0074 2377     		strb	r3, [r4, #28]
1427:Drivers/STM32F7xx_HAL_Driver/Src/stm32f7xx_hal_rtc_ex.c ****       }
 2376              		.loc 1 1427 0
 2377 0076 E6E7     		b	.L180
 2378              	.LVL162:
 2379              	.L184:
1400:Drivers/STM32F7xx_HAL_Driver/Src/stm32f7xx_hal_rtc_ex.c ****   
 2380              		.loc 1 1400 0
 2381 0078 0220     		movs	r0, #2
 2382              	.LVL163:
 2383 007a E4E7     		b	.L180
 2384              		.cfi_endproc
 2385              	.LFE165:
 2387              		.section	.text.HAL_RTCEx_SetSynchroShift,"ax",%progbits
 2388              		.align	1
 2389              		.global	HAL_RTCEx_SetSynchroShift
 2390              		.syntax unified
 2391              		.thumb
 2392              		.thumb_func
 2393              		.fpu fpv5-sp-d16
 2395              	HAL_RTCEx_SetSynchroShift:
 2396              	.LFB166:
1446:Drivers/STM32F7xx_HAL_Driver/Src/stm32f7xx_hal_rtc_ex.c **** 
ARM GAS  C:\Users\micha\AppData\Local\Temp\ccafMmKQ.s 			page 69


1447:Drivers/STM32F7xx_HAL_Driver/Src/stm32f7xx_hal_rtc_ex.c **** /**
1448:Drivers/STM32F7xx_HAL_Driver/Src/stm32f7xx_hal_rtc_ex.c ****   * @brief  Configures the Synchronization Shift Control Settings.
1449:Drivers/STM32F7xx_HAL_Driver/Src/stm32f7xx_hal_rtc_ex.c ****   * @note   When REFCKON is set, firmware must not write to Shift control register. 
1450:Drivers/STM32F7xx_HAL_Driver/Src/stm32f7xx_hal_rtc_ex.c ****   * @param  hrtc pointer to a RTC_HandleTypeDef structure that contains
1451:Drivers/STM32F7xx_HAL_Driver/Src/stm32f7xx_hal_rtc_ex.c ****   *                the configuration information for RTC.    
1452:Drivers/STM32F7xx_HAL_Driver/Src/stm32f7xx_hal_rtc_ex.c ****   * @param  ShiftAdd1S Select to add or not 1 second to the time calendar.
1453:Drivers/STM32F7xx_HAL_Driver/Src/stm32f7xx_hal_rtc_ex.c ****   *          This parameter can be one of the following values :
1454:Drivers/STM32F7xx_HAL_Driver/Src/stm32f7xx_hal_rtc_ex.c ****   *             @arg RTC_SHIFTADD1S_SET: Add one second to the clock calendar. 
1455:Drivers/STM32F7xx_HAL_Driver/Src/stm32f7xx_hal_rtc_ex.c ****   *             @arg RTC_SHIFTADD1S_RESET: No effect.
1456:Drivers/STM32F7xx_HAL_Driver/Src/stm32f7xx_hal_rtc_ex.c ****   * @param  ShiftSubFS Select the number of Second Fractions to substitute.
1457:Drivers/STM32F7xx_HAL_Driver/Src/stm32f7xx_hal_rtc_ex.c ****   *          This parameter can be one any value from 0 to 0x7FFF.
1458:Drivers/STM32F7xx_HAL_Driver/Src/stm32f7xx_hal_rtc_ex.c ****   * @retval HAL status
1459:Drivers/STM32F7xx_HAL_Driver/Src/stm32f7xx_hal_rtc_ex.c ****   */
1460:Drivers/STM32F7xx_HAL_Driver/Src/stm32f7xx_hal_rtc_ex.c **** HAL_StatusTypeDef HAL_RTCEx_SetSynchroShift(RTC_HandleTypeDef* hrtc, uint32_t ShiftAdd1S, uint32_t 
1461:Drivers/STM32F7xx_HAL_Driver/Src/stm32f7xx_hal_rtc_ex.c **** {
 2397              		.loc 1 1461 0
 2398              		.cfi_startproc
 2399              		@ args = 0, pretend = 0, frame = 0
 2400              		@ frame_needed = 0, uses_anonymous_args = 0
 2401              	.LVL164:
 2402 0000 F8B5     		push	{r3, r4, r5, r6, r7, lr}
 2403              	.LCFI31:
 2404              		.cfi_def_cfa_offset 24
 2405              		.cfi_offset 3, -24
 2406              		.cfi_offset 4, -20
 2407              		.cfi_offset 5, -16
 2408              		.cfi_offset 6, -12
 2409              		.cfi_offset 7, -8
 2410              		.cfi_offset 14, -4
 2411              	.LVL165:
1462:Drivers/STM32F7xx_HAL_Driver/Src/stm32f7xx_hal_rtc_ex.c ****   uint32_t tickstart = 0;
1463:Drivers/STM32F7xx_HAL_Driver/Src/stm32f7xx_hal_rtc_ex.c **** 
1464:Drivers/STM32F7xx_HAL_Driver/Src/stm32f7xx_hal_rtc_ex.c ****   /* Check the parameters */
1465:Drivers/STM32F7xx_HAL_Driver/Src/stm32f7xx_hal_rtc_ex.c ****   assert_param(IS_RTC_SHIFT_ADD1S(ShiftAdd1S));
1466:Drivers/STM32F7xx_HAL_Driver/Src/stm32f7xx_hal_rtc_ex.c ****   assert_param(IS_RTC_SHIFT_SUBFS(ShiftSubFS));
1467:Drivers/STM32F7xx_HAL_Driver/Src/stm32f7xx_hal_rtc_ex.c **** 
1468:Drivers/STM32F7xx_HAL_Driver/Src/stm32f7xx_hal_rtc_ex.c ****   /* Process Locked */ 
1469:Drivers/STM32F7xx_HAL_Driver/Src/stm32f7xx_hal_rtc_ex.c ****   __HAL_LOCK(hrtc);
 2412              		.loc 1 1469 0
 2413 0002 037F     		ldrb	r3, [r0, #28]	@ zero_extendqisi2
 2414 0004 012B     		cmp	r3, #1
 2415 0006 4BD0     		beq	.L193
 2416 0008 1646     		mov	r6, r2
 2417 000a 0F46     		mov	r7, r1
 2418 000c 0446     		mov	r4, r0
 2419              		.loc 1 1469 0 is_stmt 0 discriminator 2
 2420 000e 0123     		movs	r3, #1
 2421 0010 0377     		strb	r3, [r0, #28]
1470:Drivers/STM32F7xx_HAL_Driver/Src/stm32f7xx_hal_rtc_ex.c ****   
1471:Drivers/STM32F7xx_HAL_Driver/Src/stm32f7xx_hal_rtc_ex.c ****   hrtc->State = HAL_RTC_STATE_BUSY;
 2422              		.loc 1 1471 0 is_stmt 1 discriminator 2
 2423 0012 0223     		movs	r3, #2
 2424 0014 4377     		strb	r3, [r0, #29]
1472:Drivers/STM32F7xx_HAL_Driver/Src/stm32f7xx_hal_rtc_ex.c **** 
1473:Drivers/STM32F7xx_HAL_Driver/Src/stm32f7xx_hal_rtc_ex.c ****   /* Disable the write protection for RTC registers */
1474:Drivers/STM32F7xx_HAL_Driver/Src/stm32f7xx_hal_rtc_ex.c ****   __HAL_RTC_WRITEPROTECTION_DISABLE(hrtc);
 2425              		.loc 1 1474 0 discriminator 2
ARM GAS  C:\Users\micha\AppData\Local\Temp\ccafMmKQ.s 			page 70


 2426 0016 0368     		ldr	r3, [r0]
 2427 0018 CA22     		movs	r2, #202
 2428              	.LVL166:
 2429 001a 5A62     		str	r2, [r3, #36]
 2430 001c 0368     		ldr	r3, [r0]
 2431 001e 5322     		movs	r2, #83
 2432 0020 5A62     		str	r2, [r3, #36]
1475:Drivers/STM32F7xx_HAL_Driver/Src/stm32f7xx_hal_rtc_ex.c **** 
1476:Drivers/STM32F7xx_HAL_Driver/Src/stm32f7xx_hal_rtc_ex.c ****   /* Get tick */
1477:Drivers/STM32F7xx_HAL_Driver/Src/stm32f7xx_hal_rtc_ex.c ****   tickstart = HAL_GetTick();
 2433              		.loc 1 1477 0 discriminator 2
 2434 0022 FFF7FEFF 		bl	HAL_GetTick
 2435              	.LVL167:
 2436 0026 0546     		mov	r5, r0
 2437              	.LVL168:
 2438              	.L189:
1478:Drivers/STM32F7xx_HAL_Driver/Src/stm32f7xx_hal_rtc_ex.c **** 
1479:Drivers/STM32F7xx_HAL_Driver/Src/stm32f7xx_hal_rtc_ex.c ****     /* Wait until the shift is completed*/
1480:Drivers/STM32F7xx_HAL_Driver/Src/stm32f7xx_hal_rtc_ex.c ****     while((hrtc->Instance->ISR & RTC_ISR_SHPF) != RESET)
 2439              		.loc 1 1480 0
 2440 0028 2368     		ldr	r3, [r4]
 2441 002a D868     		ldr	r0, [r3, #12]
 2442 002c 10F0080F 		tst	r0, #8
 2443 0030 0DD0     		beq	.L195
1481:Drivers/STM32F7xx_HAL_Driver/Src/stm32f7xx_hal_rtc_ex.c ****     {
1482:Drivers/STM32F7xx_HAL_Driver/Src/stm32f7xx_hal_rtc_ex.c ****       if((HAL_GetTick() - tickstart ) > RTC_TIMEOUT_VALUE)
 2444              		.loc 1 1482 0
 2445 0032 FFF7FEFF 		bl	HAL_GetTick
 2446              	.LVL169:
 2447 0036 401B     		subs	r0, r0, r5
 2448 0038 B0F57A7F 		cmp	r0, #1000
 2449 003c F4D9     		bls	.L189
1483:Drivers/STM32F7xx_HAL_Driver/Src/stm32f7xx_hal_rtc_ex.c ****       {  
1484:Drivers/STM32F7xx_HAL_Driver/Src/stm32f7xx_hal_rtc_ex.c ****         /* Enable the write protection for RTC registers */
1485:Drivers/STM32F7xx_HAL_Driver/Src/stm32f7xx_hal_rtc_ex.c ****         __HAL_RTC_WRITEPROTECTION_ENABLE(hrtc);  
 2450              		.loc 1 1485 0
 2451 003e 2368     		ldr	r3, [r4]
 2452 0040 FF22     		movs	r2, #255
 2453 0042 5A62     		str	r2, [r3, #36]
1486:Drivers/STM32F7xx_HAL_Driver/Src/stm32f7xx_hal_rtc_ex.c ****         
1487:Drivers/STM32F7xx_HAL_Driver/Src/stm32f7xx_hal_rtc_ex.c ****         hrtc->State = HAL_RTC_STATE_TIMEOUT;
 2454              		.loc 1 1487 0
 2455 0044 0320     		movs	r0, #3
 2456 0046 6077     		strb	r0, [r4, #29]
1488:Drivers/STM32F7xx_HAL_Driver/Src/stm32f7xx_hal_rtc_ex.c ****         
1489:Drivers/STM32F7xx_HAL_Driver/Src/stm32f7xx_hal_rtc_ex.c ****         /* Process Unlocked */ 
1490:Drivers/STM32F7xx_HAL_Driver/Src/stm32f7xx_hal_rtc_ex.c ****         __HAL_UNLOCK(hrtc);
 2457              		.loc 1 1490 0
 2458 0048 0023     		movs	r3, #0
 2459 004a 2377     		strb	r3, [r4, #28]
 2460              	.LVL170:
 2461              	.L188:
1491:Drivers/STM32F7xx_HAL_Driver/Src/stm32f7xx_hal_rtc_ex.c ****         
1492:Drivers/STM32F7xx_HAL_Driver/Src/stm32f7xx_hal_rtc_ex.c ****         return HAL_TIMEOUT;
1493:Drivers/STM32F7xx_HAL_Driver/Src/stm32f7xx_hal_rtc_ex.c ****       }
